(dp0
S'763'
p1
(dp2
S'1'
p3
(lp4
I1
aI69
asS'2'
p5
(lp6
I70
aI150
assS'650'
p7
(dp8
S'2'
p9
(lp10
I529
aI1220
assS'712'
p11
(dp12
S'1'
p13
(lp14
I1
aI762
asS'2'
p15
(lp16
I763
aI1460
assS'669'
p17
(dp18
S'1'
p19
(lp20
I1
aI662
asS'2'
p21
(lp22
I663
aI1422
assS'668'
p23
(dp24
S'1'
p25
(lp26
I1
aI626
asS'2'
p27
(lp28
I627
aI1268
assS'608'
p29
(dp30
S'1'
p31
(lp32
I1
aI610
asS'2'
p33
(lp34
I611
aI1180
assS'666'
p35
(dp36
S'1'
p37
(lp38
I1
aI626
asS'2'
p39
(lp40
I627
aI1310
assS'665'
p41
(dp42
S'1'
p43
(lp44
I1
aI886
asS'2'
p45
(lp46
I887
aI1508
assS'664'
p47
(dp48
S'1'
p49
(lp50
I1
aI598
asS'2'
p51
(lp52
I599
aI1272
assS'663'
p53
(dp54
S'1'
p55
(lp56
I1
aI686
asS'2'
p57
(lp58
I687
aI1434
assS'621'
p59
(dp60
S'1'
p61
(lp62
I1
aI558
asS'2'
p63
(lp64
I559
aI1172
assS'661'
p65
(dp66
S'1'
p67
(lp68
I1
aI640
asS'2'
p69
(lp70
I641
aI1348
assS'660'
p71
(dp72
S'1'
p73
(lp74
I1
aI922
asS'2'
p75
(lp76
I923
aI1714
assS'769'
p77
(dp78
S'1'
p79
(lp80
I1
aI84
asS'2'
p81
(lp82
I85
aI156
assS'620'
p83
(dp84
S'1'
p85
(lp86
I1
aI552
asS'2'
p87
(lp88
I553
aI1150
assS'498'
p89
(dp90
S'1'
p91
(lp92
I1
aI496
asS'2'
p93
(lp94
I497
aI896
assS'499'
p95
(dp96
S'1'
p97
(lp98
I1
aI520
asS'2'
p99
(lp100
I525
aI966
assS'748'
p101
(dp102
S'1'
p103
(lp104
I1
aI72
asS'2'
p105
(lp106
I73
aI151
assS'494'
p107
(dp108
S'1'
p109
(lp110
I1
aI478
asS'2'
p111
(lp112
I479
aI864
assS'495'
p113
(dp114
S'1'
p115
(lp116
I1
aI510
asS'2'
p117
(lp118
I511
aI984
assS'496'
p119
(dp120
S'1'
p121
(lp122
I1
aI572
asS'2'
p123
(lp124
I577
aI1066
assS'497'
p125
(dp126
S'1'
p127
(lp128
I1
aI498
asS'2'
p129
(lp130
I499
aI994
assS'490'
p131
(dp132
S'1'
p133
(lp134
I1
aI470
asS'2'
p135
(lp136
I473
aI900
assS'491'
p137
(dp138
S'1'
p139
(lp140
I1
aI420
asS'2'
p141
(lp142
I421
aI1008
assS'492'
p143
(dp144
S'1'
p145
(lp146
I1
aI420
asS'2'
p147
(lp148
I421
aI856
assS'493'
p149
(dp150
S'1'
p151
(lp152
I1
aI504
asS'2'
p153
(lp154
I509
aI996
assS'692'
p155
(dp156
S'1'
p157
(lp158
I1
aI942
asS'2'
p159
(lp160
I943
aI1690
assS'693'
p161
(dp162
S'1'
p163
(lp164
I1
aI1044
asS'2'
p165
(lp166
I1045
aI1960
assS'690'
p167
(dp168
S'1'
p169
(lp170
I1
aI1044
asS'2'
p171
(lp172
I1045
aI1908
assS'691'
p173
(dp174
S'1'
p175
(lp176
I1
aI894
asS'2'
p177
(lp178
I895
aI1944
assS'696'
p179
(dp180
S'1'
p181
(lp182
I1
aI1064
asS'2'
p183
(lp184
I1065
aI2290
assS'697'
p185
(dp186
S'1'
p187
(lp188
I1
aI964
asS'2'
p189
(lp190
I965
aI2108
assS'694'
p191
(dp192
S'1'
p193
(lp194
I1
aI706
asS'2'
p195
(lp196
I707
aI1684
assS'695'
p197
(dp198
S'1'
p199
(lp200
I1
aI798
asS'2'
p201
(lp202
I799
aI1656
assS'698'
p203
(dp204
S'1'
p205
(lp206
I1
aI966
asS'2'
p207
(lp208
I967
aI2144
assS'699'
p209
(dp210
S'1'
p211
(lp212
I1
aI922
asS'2'
p213
(lp214
I923
aI2036
assS'759'
p215
(dp216
S'1'
p217
(lp218
I1
aI77
asS'2'
p219
(lp220
I78
aI148
assS'758'
p221
(dp222
S'1'
p223
(lp224
I1
aI71
asS'2'
p225
(lp226
I72
aI144
assS'542'
p227
(dp228
S'1'
p229
(lp230
I1
aI534
asS'2'
p231
(lp232
I535
aI1120
assS'543'
p233
(dp234
S'1'
p235
(lp236
I1
aI502
asS'2'
p237
(lp238
I503
aI1060
assS'540'
p239
(dp240
S'1'
p241
(lp242
I1
aI592
asS'2'
p243
(lp244
I593
aI1176
assS'541'
p245
(dp246
S'1'
p247
(lp248
I1
aI512
asS'2'
p249
(lp250
I519
aI1110
assS'546'
p251
(dp252
S'1'
p253
(lp254
I1
aI608
asS'2'
p255
(lp256
I609
aI1204
assS'547'
p257
(dp258
S'1'
p259
(lp260
I1
aI520
asS'2'
p261
(lp262
I521
aI1184
assS'544'
p263
(dp264
S'1'
p265
(lp266
I1
aI592
asS'2'
p267
(lp268
I597
aI1182
assS'545'
p269
(dp270
S'1'
p271
(lp272
I1
aI548
asS'2'
p273
(lp274
I549
aI1142
assS'717'
p275
(dp276
S'1'
p277
(lp278
I1
aI602
asS'2'
p279
(lp280
I603
aI1300
assS'548'
p281
(dp282
S'1'
p283
(lp284
I1
aI508
asS'2'
p285
(lp286
I509
aI1118
assS'549'
p287
(dp288
S'1'
p289
(lp290
I1
aI668
asS'2'
p291
(lp292
I669
aI1232
assS'629'
p293
(dp294
S'1'
p295
(lp296
I1
aI614
asS'2'
p297
(lp298
I615
aI1210
assS'735'
p299
(dp300
S'1'
p301
(lp302
I1
aI67
asS'2'
p303
(lp304
I68
aI132
assS'628'
p305
(dp306
S'1'
p307
(lp308
I1
aI574
asS'2'
p309
(lp310
I575
aI1096
assS'678'
p311
(dp312
S'1'
p313
(lp314
I1
aI568
asS'2'
p315
(lp316
I569
aI1532
assS'679'
p317
(dp318
S'1'
p319
(lp320
I1
aI924
asS'2'
p321
(lp322
I925
aI1686
assS'719'
p323
(dp324
S'1'
p325
(lp326
I1
aI986
asS'2'
p327
(lp328
I987
aI2002
assS'718'
p329
(dp330
S'1'
p331
(lp332
I1
aI586
asS'2'
p333
(lp334
I587
aI1508
assS'674'
p335
(dp336
S'1'
p337
(lp338
I1
aI616
asS'2'
p339
(lp340
I617
aI1250
assS'675'
p341
(dp342
S'1'
p343
(lp344
I1
aI936
asS'2'
p345
(lp346
I937
aI1666
assS'676'
p347
(dp348
S'1'
p349
(lp350
I1
aI752
asS'2'
p351
(lp352
I753
aI1372
assS'677'
p353
(dp354
S'1'
p355
(lp356
I1
aI812
asS'2'
p357
(lp358
I813
aI1432
assS'670'
p359
(dp360
S'1'
p361
(lp362
I1
aI902
asS'2'
p363
(lp364
I903
aI1522
assS'671'
p365
(dp366
S'1'
p367
(lp368
I1
aI1074
asS'2'
p369
(lp370
I1075
aI2164
assS'672'
p371
(dp372
S'1'
p373
(lp374
I1
aI736
asS'2'
p375
(lp376
I737
aI1294
assS'662'
p377
(dp378
S'1'
p379
(lp380
I1
aI780
asS'2'
p381
(lp382
I781
aI1314
assS'651'
p383
(dp384
S'1'
p385
(lp386
I1
aI618
asS'2'
p387
(lp388
I619
aI1296
assS'764'
p389
(dp390
S'1'
p391
(lp392
I1
aI112
asS'2'
p393
(lp394
I113
aI196
assS'716'
p395
(dp396
S'1'
p397
(lp398
I1
aI892
asS'2'
p399
(lp400
I893
aI1606
assS'734'
p401
(dp402
S'1'
p403
(lp404
I1
aI72
asS'2'
p405
(lp406
I73
aI122
assS'767'
p407
(dp408
S'1'
p409
(lp410
I1
aI97
asS'2'
p411
(lp412
I98
aI173
assS'765'
p413
(dp414
S'1'
p415
(lp416
I1
aI75
asS'2'
p417
(lp418
I76
aI162
assS'673'
p419
(dp420
S'1'
p421
(lp422
I1
aI656
asS'2'
p423
(lp424
I657
aI1250
assS'736'
p425
(dp426
S'1'
p427
(lp428
I1
aI75
asS'2'
p429
(lp430
I76
aI165
assS'537'
p431
(dp432
S'1'
p433
(lp434
I1
aI524
asS'2'
p435
(lp436
I525
aI1100
assS'536'
p437
(dp438
S'1'
p439
(lp440
I1
aI514
asS'2'
p441
(lp442
I515
aI1006
assS'535'
p443
(dp444
S'1'
p445
(lp446
I1
aI512
asS'2'
p447
(lp448
I519
aI1090
assS'534'
p449
(dp450
S'1'
p451
(lp452
I1
aI506
asS'2'
p453
(lp454
I507
aI1020
assS'533'
p455
(dp456
S'1'
p457
(lp458
I1
aI574
asS'2'
p459
(lp460
I575
aI1090
assS'532'
p461
(dp462
S'1'
p463
(lp464
I1
aI672
asS'2'
p465
(lp466
I679
aI1246
assS'531'
p467
(dp468
S'1'
p469
(lp470
I1
aI612
asS'2'
p471
(lp472
I613
aI1178
assS'530'
p473
(dp474
S'1'
p475
(lp476
I1
aI524
asS'2'
p477
(lp478
I525
aI1106
assS'539'
p479
(dp480
S'1'
p481
(lp482
I1
aI492
asS'2'
p483
(lp484
I493
aI1026
assS'538'
p485
(dp486
S'1'
p487
(lp488
I1
aI468
asS'2'
p489
(lp490
I473
aI984
assS'591'
p491
(dp492
S'1'
p493
(lp494
I1
aI498
asS'2'
p495
(lp496
I499
aI1284
assS'590'
p497
(dp498
S'1'
p499
(lp500
I1
aI618
asS'2'
p501
(lp502
I619
aI1140
assS'593'
p503
(dp504
S'1'
p505
(lp506
I1
aI598
asS'2'
p507
(lp508
I599
aI1254
assS'592'
p509
(dp510
S'1'
p511
(lp512
I1
aI644
asS'2'
p513
(lp514
I645
aI1266
assS'595'
p515
(dp516
S'1'
p517
(lp518
I1
aI576
asS'2'
p519
(lp520
I577
aI1312
assS'594'
p521
(dp522
S'1'
p523
(lp524
I1
aI664
asS'2'
p525
(lp526
I665
aI1114
assS'597'
p527
(dp528
S'1'
p529
(lp530
I1
aI644
asS'2'
p531
(lp532
I645
aI1272
assS'596'
p533
(dp534
S'1'
p535
(lp536
I1
aI712
asS'2'
p537
(lp538
I713
aI1362
assS'599'
p539
(dp540
S'1'
p541
(lp542
I1
aI722
asS'2'
p543
(lp544
I723
aI1478
assS'598'
p545
(dp546
S'1'
p547
(lp548
I1
aI712
asS'2'
p549
(lp550
I713
aI1410
assS'706'
p551
(dp552
S'1'
p553
(lp554
I1
aI924
asS'2'
p555
(lp556
I925
aI1624
assS'707'
p557
(dp558
S'1'
p559
(lp560
I1
aI858
asS'2'
p561
(lp562
I859
aI1852
assS'700'
p563
(dp564
S'1'
p565
(lp566
I1
aI900
asS'2'
p567
(lp568
I901
aI1996
assS'701'
p569
(dp570
S'1'
p571
(lp572
I1
aI856
asS'2'
p573
(lp574
I857
aI2035
assS'702'
p575
(dp576
S'1'
p577
(lp578
I1
aI824
asS'2'
p579
(lp580
I825
aI1684
assS'703'
p581
(dp582
S'1'
p583
(lp584
I1
aI1178
asS'2'
p585
(lp586
I1179
aI2292
assS'714'
p587
(dp588
S'1'
p589
(lp590
I1
aI988
asS'2'
p591
(lp592
I989
aI1800
assS'742'
p593
(dp594
S'1'
p595
(lp596
I1
aI60
asS'2'
p597
(lp598
I61
aI133
assS'667'
p599
(dp600
S'1'
p601
(lp602
I1
aI644
asS'2'
p603
(lp604
I645
aI1290
assS'771'
p605
(dp606
S'1'
p607
(lp608
I1
aI75
asS'2'
p609
(lp610
I76
aI139
assS'711'
p611
(dp612
S'1'
p613
(lp614
I1
aI532
asS'2'
p615
(lp616
I533
aI1344
assS'726'
p617
(dp618
S'1'
p619
(lp620
I1
aI56
asS'2'
p621
(lp622
I57
aI114
assS'762'
p623
(dp624
S'1'
p625
(lp626
I1
aI66
asS'2'
p627
(lp628
I67
aI136
assS'790'
p629
(dp630
S'1'
p631
(lp632
I1
aI83
asS'2'
p633
(lp634
I84
aI166
assS'524'
p635
(dp636
S'1'
p637
(lp638
I1
aI496
asS'2'
p639
(lp640
I497
aI1130
assS'525'
p641
(dp642
S'1'
p643
(lp644
I1
aI542
asS'2'
p645
(lp646
I543
aI1066
assS'526'
p647
(dp648
S'1'
p649
(lp650
I1
aI548
asS'2'
p651
(lp652
I555
aI1062
assS'527'
p653
(dp654
S'1'
p655
(lp656
I1
aI478
asS'2'
p657
(lp658
I479
aI1022
assS'520'
p659
(dp660
S'1'
p661
(lp662
I1
aI404
asS'2'
p663
(lp664
I409
aI900
assS'521'
p665
(dp666
S'1'
p667
(lp668
I1
aI492
asS'2'
p669
(lp670
I493
aI934
assS'522'
p671
(dp672
S'1'
p673
(lp674
I1
aI562
asS'2'
p675
(lp676
I563
aI1208
assS'523'
p677
(dp678
S'1'
p679
(lp680
I1
aI458
asS'2'
p681
(lp682
I463
aI860
assS'528'
p683
(dp684
S'1'
p685
(lp686
I1
aI582
asS'2'
p687
(lp688
I583
aI1036
assS'529'
p689
(dp690
S'1'
p691
(lp692
I1
aI610
asS'2'
p693
(lp694
I615
aI1140
assS'723'
p695
(dp696
S'1'
p697
(lp698
I1
aI970
asS'2'
p699
(lp700
I971
aI1830
assS'586'
p701
(dp702
S'1'
p703
(lp704
I1
aI692
asS'2'
p705
(lp706
I693
aI1442
assS'587'
p707
(dp708
S'1'
p709
(lp710
I1
aI482
asS'2'
p711
(lp712
I483
aI846
assS'584'
p713
(dp714
S'1'
p715
(lp716
I1
aI540
asS'2'
p717
(lp718
I541
aI1126
assS'585'
p719
(dp720
S'1'
p721
(lp722
I1
aI602
asS'2'
p723
(lp724
I603
aI1196
assS'582'
p725
(dp726
S'1'
p727
(lp728
I1
aI558
asS'2'
p729
(lp730
I559
aI1270
assS'583'
p731
(dp732
S'1'
p733
(lp734
I1
aI524
asS'2'
p735
(lp736
I525
aI1064
assS'580'
p737
(dp738
S'1'
p739
(lp740
I1
aI626
asS'2'
p741
(lp742
I627
aI1196
assS'581'
p743
(dp744
S'1'
p745
(lp746
I1
aI776
asS'2'
p747
(lp748
I777
aI1414
assS'779'
p749
(dp750
S'1'
p751
(lp752
I1
aI90
asS'2'
p753
(lp754
I91
aI189
assS'588'
p755
(dp756
S'1'
p757
(lp758
I1
aI662
asS'2'
p759
(lp760
I663
aI1212
assS'589'
p761
(dp762
S'1'
p763
(lp764
I1
aI676
asS'2'
p765
(lp766
I677
aI1092
assS'776'
p767
(dp768
S'1'
p769
(lp770
I1
aI63
asS'2'
p771
(lp772
I64
aI141
assS'784'
p773
(dp774
S'1'
p775
(lp776
I1
aI85
asS'2'
p777
(lp778
I86
aI176
assS'785'
p779
(dp780
S'1'
p781
(lp782
I1
aI81
asS'2'
p783
(lp784
I82
aI166
assS'760'
p785
(dp786
S'1'
p787
(lp788
I1
aI96
asS'2'
p789
(lp790
I97
aI156
assS'787'
p791
(dp792
S'1'
p793
(lp794
I1
aI95
asS'2'
p795
(lp796
I96
aI175
assS'780'
p797
(dp798
S'1'
p799
(lp800
I1
aI113
asS'2'
p801
(lp802
I114
aI190
assS'781'
p803
(dp804
S'1'
p805
(lp806
I1
aI56
asS'2'
p807
(lp808
I57
aI129
assS'782'
p809
(dp810
S'1'
p811
(lp812
I1
aI58
asS'2'
p813
(lp814
I59
aI121
assS'783'
p815
(dp816
S'1'
p817
(lp818
I1
aI64
asS'2'
p819
(lp820
I65
aI143
assS'751'
p821
(dp822
S'1'
p823
(lp824
I1
aI79
asS'2'
p825
(lp826
I80
aI160
assS'786'
p827
(dp828
S'1'
p829
(lp830
I1
aI76
asS'2'
p831
(lp832
I77
aI160
assS'630'
p833
(dp834
S'1'
p835
(lp836
I1
aI642
asS'2'
p837
(lp838
I643
aI1224
assS'789'
p839
(dp840
S'1'
p841
(lp842
I1
aI91
asS'2'
p843
(lp844
I92
aI166
assS'737'
p845
(dp846
S'1'
p847
(lp848
I1
aI46
asS'2'
p849
(lp850
I47
aI107
assS'519'
p851
(dp852
S'2'
p853
(lp854
I433
aI918
assS'518'
p855
(dp856
S'1'
p857
(lp858
I1
aI520
asS'2'
p859
(lp860
I521
aI1010
assS'643'
p861
(dp862
S'1'
p863
(lp864
I1
aI584
asS'2'
p865
(lp866
I585
aI1344
assS'642'
p867
(dp868
S'1'
p869
(lp870
I1
aI616
asS'2'
p871
(lp872
I617
aI1286
assS'645'
p873
(dp874
S'1'
p875
(lp876
I1
aI782
asS'2'
p877
(lp878
I783
aI1568
assS'644'
p879
(dp880
S'1'
p881
(lp882
I1
aI662
asS'2'
p883
(lp884
I663
aI1340
assS'647'
p885
(dp886
S'1'
p887
(lp888
I1
aI718
asS'2'
p889
(lp890
I719
aI1548
assS'646'
p891
(dp892
S'1'
p893
(lp894
I1
aI680
asS'2'
p895
(lp896
I681
aI1452
assS'511'
p897
(dp898
S'1'
p899
(lp900
I1
aI516
asS'2'
p901
(lp902
I521
aI980
assS'510'
p903
(dp904
S'1'
p905
(lp906
I1
aI522
asS'2'
p907
(lp908
I523
aI1082
assS'513'
p909
(dp910
S'1'
p911
(lp912
I1
aI542
asS'2'
p913
(lp914
I543
aI1000
assS'512'
p915
(dp916
S'1'
p917
(lp918
I1
aI510
asS'2'
p919
(lp920
I511
aI1014
assS'515'
p921
(dp922
S'1'
p923
(lp924
I1
aI454
asS'2'
p925
(lp926
I455
aI882
assS'514'
p927
(dp928
S'1'
p929
(lp930
I1
aI528
asS'2'
p931
(lp932
I535
aI1012
assS'517'
p933
(dp934
S'1'
p935
(lp936
I1
aI526
asS'2'
p937
(lp938
I531
aI1060
assS'516'
p939
(dp940
S'1'
p941
(lp942
I1
aI506
asS'2'
p943
(lp944
I507
aI946
assS'623'
p945
(dp946
S'1'
p947
(lp948
I1
aI600
asS'2'
p949
(lp950
I601
aI1228
assS'622'
p951
(dp952
S'1'
p953
(lp954
I1
aI758
asS'2'
p955
(lp956
I759
aI1364
assS'579'
p957
(dp958
S'1'
p959
(lp960
I1
aI482
asS'2'
p961
(lp962
I483
aI922
assS'578'
p963
(dp964
S'1'
p965
(lp966
I1
aI664
asS'2'
p967
(lp968
I665
aI1014
assS'627'
p969
(dp970
S'1'
p971
(lp972
I1
aI578
asS'2'
p973
(lp974
I579
aI1072
assS'626'
p975
(dp976
S'1'
p977
(lp978
I1
aI626
asS'2'
p979
(lp980
I627
aI1148
assS'625'
p981
(dp982
S'1'
p983
(lp984
I1
aI574
asS'2'
p985
(lp986
I575
aI1066
assS'624'
p987
(dp988
S'1'
p989
(lp990
I1
aI462
asS'2'
p991
(lp992
I463
aI1126
assS'573'
p993
(dp994
S'1'
p995
(lp996
I1
aI472
asS'2'
p997
(lp998
I473
aI872
assS'572'
p999
(dp1000
S'1'
p1001
(lp1002
I1
aI694
asS'2'
p1003
(lp1004
I695
aI1084
assS'571'
p1005
(dp1006
S'1'
p1007
(lp1008
I1
aI562
asS'2'
p1009
(lp1010
I563
aI1024
assS'570'
p1011
(dp1012
S'1'
p1013
(lp1014
I1
aI456
asS'2'
p1015
(lp1016
I457
aI934
assS'577'
p1017
(dp1018
S'1'
p1019
(lp1020
I1
aI554
asS'2'
p1021
(lp1022
I555
aI1012
assS'576'
p1023
(dp1024
S'1'
p1025
(lp1026
I1
aI600
asS'2'
p1027
(lp1028
I601
aI1120
assS'575'
p1029
(dp1030
S'1'
p1031
(lp1032
I1
aI586
asS'2'
p1033
(lp1034
I587
aI1162
assS'574'
p1035
(dp1036
S'1'
p1037
(lp1038
I1
aI526
asS'2'
p1039
(lp1040
I527
aI1088
assS'743'
p1041
(dp1042
S'1'
p1043
(lp1044
I1
aI98
asS'2'
p1045
(lp1046
I99
aI207
assS'741'
p1047
(dp1048
S'1'
p1049
(lp1050
I1
aI67
asS'2'
p1051
(lp1052
I68
aI127
assS'601'
p1053
(dp1054
S'1'
p1055
(lp1056
I1
aI598
asS'2'
p1057
(lp1058
I599
aI1162
assS'752'
p1059
(dp1060
S'1'
p1061
(lp1062
I1
aI77
asS'2'
p1063
(lp1064
I78
aI163
assS'600'
p1065
(dp1066
S'1'
p1067
(lp1068
I1
aI500
asS'2'
p1069
(lp1070
I501
aI1098
assS'731'
p1071
(dp1072
S'1'
p1073
(lp1074
I1
aI77
asS'2'
p1075
(lp1076
I78
aI133
assS'746'
p1077
(dp1078
S'1'
p1079
(lp1080
I1
aI114
asS'2'
p1081
(lp1082
I115
aI189
assS'730'
p1083
(dp1084
S'1'
p1085
(lp1086
I1
aI60
asS'2'
p1087
(lp1088
I61
aI145
assS'745'
p1089
(dp1090
S'1'
p1091
(lp1092
I1
aI102
asS'2'
p1093
(lp1094
I103
aI199
assS'747'
p1095
(dp1096
S'1'
p1097
(lp1098
I1
aI84
asS'2'
p1099
(lp1100
I85
aI150
assS'733'
p1101
(dp1102
S'1'
p1103
(lp1104
I1
aI73
asS'2'
p1105
(lp1106
I74
aI127
assS'761'
p1107
(dp1108
S'1'
p1109
(lp1110
I1
aI81
asS'2'
p1111
(lp1112
I82
aI189
assS'656'
p1113
(dp1114
S'1'
p1115
(lp1116
I1
aI630
asS'2'
p1117
(lp1118
I631
aI1242
assS'657'
p1119
(dp1120
S'1'
p1121
(lp1122
I1
aI644
asS'2'
p1123
(lp1124
I645
aI1210
assS'654'
p1125
(dp1126
S'1'
p1127
(lp1128
I1
aI696
asS'2'
p1129
(lp1130
I697
aI1178
assS'655'
p1131
(dp1132
S'1'
p1133
(lp1134
I1
aI684
asS'2'
p1135
(lp1136
I685
aI1186
assS'652'
p1137
(dp1138
S'1'
p1139
(lp1140
I1
aI846
asS'2'
p1141
(lp1142
I847
aI1796
assS'653'
p1143
(dp1144
S'1'
p1145
(lp1146
I1
aI814
asS'2'
p1147
(lp1148
I815
aI1586
assS'508'
p1149
(dp1150
S'1'
p1151
(lp1152
I1
aI430
asS'2'
p1153
(lp1154
I435
aI962
assS'509'
p1155
(dp1156
S'1'
p1157
(lp1158
I1
aI482
asS'2'
p1159
(lp1160
I483
aI934
assS'506'
p1161
(dp1162
S'1'
p1163
(lp1164
I1
aI472
asS'2'
p1165
(lp1166
I473
aI926
assS'507'
p1167
(dp1168
S'1'
p1169
(lp1170
I1
aI482
asS'2'
p1171
(lp1172
I483
aI1002
assS'504'
p1173
(dp1174
S'1'
p1175
(lp1176
I1
aI598
asS'2'
p1177
(lp1178
I601
aI1066
assS'505'
p1179
(dp1180
S'1'
p1181
(lp1182
I1
aI468
asS'2'
p1183
(lp1184
I473
aI1018
assS'502'
p1185
(dp1186
S'1'
p1187
(lp1188
I1
aI498
asS'2'
p1189
(lp1190
I505
aI1028
assS'503'
p1191
(dp1192
S'1'
p1193
(lp1194
I1
aI482
asS'2'
p1195
(lp1196
I483
aI974
assS'500'
p1197
(dp1198
S'1'
p1199
(lp1200
I1
aI524
asS'2'
p1201
(lp1202
I525
aI1070
assS'501'
p1203
(dp1204
S'1'
p1205
(lp1206
I1
aI426
asS'2'
p1207
(lp1208
I427
aI926
assS'568'
p1209
(dp1210
S'1'
p1211
(lp1212
I1
aI454
asS'2'
p1213
(lp1214
I455
aI1102
assS'569'
p1215
(dp1216
S'1'
p1217
(lp1218
I1
aI548
asS'2'
p1219
(lp1220
I549
aI1038
assS'632'
p1221
(dp1222
S'1'
p1223
(lp1224
I1
aI690
asS'2'
p1225
(lp1226
I691
aI1206
assS'633'
p1227
(dp1228
S'1'
p1229
(lp1230
I1
aI536
asS'2'
p1231
(lp1232
I537
aI1202
assS'634'
p1233
(dp1234
S'1'
p1235
(lp1236
I1
aI714
asS'2'
p1237
(lp1238
I715
aI1422
assS'635'
p1239
(dp1240
S'1'
p1241
(lp1242
I1
aI742
asS'2'
p1243
(lp1244
I743
aI1374
assS'636'
p1245
(dp1246
S'1'
p1247
(lp1248
I1
aI564
asS'2'
p1249
(lp1250
I565
aI1172
assS'637'
p1251
(dp1252
S'1'
p1253
(lp1254
I1
aI554
asS'2'
p1255
(lp1256
I555
aI1148
assS'560'
p1257
(dp1258
S'1'
p1259
(lp1260
I1
aI538
asS'2'
p1261
(lp1262
I539
aI1064
assS'561'
p1263
(dp1264
S'1'
p1265
(lp1266
I1
aI490
asS'2'
p1267
(lp1268
I491
aI1154
assS'562'
p1269
(dp1270
S'1'
p1271
(lp1272
I1
aI582
asS'2'
p1273
(lp1274
I583
aI1086
assS'563'
p1275
(dp1276
S'1'
p1277
(lp1278
I1
aI472
asS'2'
p1279
(lp1280
I473
aI1088
assS'564'
p1281
(dp1282
S'1'
p1283
(lp1284
I1
aI524
asS'2'
p1285
(lp1286
I525
aI1066
assS'565'
p1287
(dp1288
S'1'
p1289
(lp1290
I1
aI648
asS'2'
p1291
(lp1292
I649
aI1386
assS'566'
p1293
(dp1294
S'1'
p1295
(lp1296
I1
aI618
asS'2'
p1297
(lp1298
I619
aI1178
assS'567'
p1299
(dp1300
S'1'
p1301
(lp1302
I1
aI656
asS'2'
p1303
(lp1304
I657
aI1284
assS'739'
p1305
(dp1306
S'1'
p1307
(lp1308
I1
aI55
asS'2'
p1309
(lp1310
I56
aI106
assS'708'
p1311
(dp1312
S'1'
p1313
(lp1314
I1
aI912
asS'2'
p1315
(lp1316
I913
aI1772
assS'738'
p1317
(dp1318
S'1'
p1319
(lp1320
I1
aI118
asS'2'
p1321
(lp1322
I119
aI192
assS'788'
p1323
(dp1324
S'1'
p1325
(lp1326
I1
aI97
asS'2'
p1327
(lp1328
I98
aI194
assS'687'
p1329
(dp1330
S'1'
p1331
(lp1332
I1
aI736
asS'2'
p1333
(lp1334
I737
aI1464
assS'704'
p1335
(dp1336
S'1'
p1337
(lp1338
I1
aI890
asS'2'
p1339
(lp1340
I891
aI1748
assS'740'
p1341
(dp1342
S'1'
p1343
(lp1344
I1
aI50
asS'2'
p1345
(lp1346
I51
aI121
assS'713'
p1347
(dp1348
S'1'
p1349
(lp1350
I1
aI712
asS'2'
p1351
(lp1352
I713
aI1412
assS'709'
p1353
(dp1354
S'1'
p1355
(lp1356
I1
aI546
asS'2'
p1357
(lp1358
I547
aI1434
assS'727'
p1359
(dp1360
S'1'
p1361
(lp1362
I1
aI61
asS'2'
p1363
(lp1364
I62
aI133
assS'724'
p1365
(dp1366
S'1'
p1367
(lp1368
I1
aI828
asS'2'
p1369
(lp1370
I829
aI1572
assS'725'
p1371
(dp1372
S'1'
p1373
(lp1374
I1
aI1392
asS'2'
p1375
(lp1376
I1393
aI2506
assS'722'
p1377
(dp1378
S'1'
p1379
(lp1380
I1
aI970
asS'2'
p1381
(lp1382
I971
aI1988
assS'658'
p1383
(dp1384
S'1'
p1385
(lp1386
I1
aI662
asS'2'
p1387
(lp1388
I663
aI1392
assS'720'
p1389
(dp1390
S'1'
p1391
(lp1392
I1
aI986
asS'2'
p1393
(lp1394
I987
aI1782
assS'721'
p1395
(dp1396
S'1'
p1397
(lp1398
I1
aI922
asS'2'
p1399
(lp1400
I923
aI1942
assS'757'
p1401
(dp1402
S'1'
p1403
(lp1404
I1
aI107
asS'2'
p1405
(lp1406
I108
aI193
assS'659'
p1407
(dp1408
S'1'
p1409
(lp1410
I1
aI864
asS'2'
p1411
(lp1412
I865
aI1800
assS'631'
p1413
(dp1414
S'1'
p1415
(lp1416
I1
aI660
asS'2'
p1417
(lp1418
I661
aI1292
assS'728'
p1419
(dp1420
S'1'
p1421
(lp1422
I1
aI73
asS'2'
p1423
(lp1424
I74
aI165
assS'729'
p1425
(dp1426
S'1'
p1427
(lp1428
I1
aI77
asS'2'
p1429
(lp1430
I78
aI150
assS'605'
p1431
(dp1432
S'1'
p1433
(lp1434
I1
aI578
asS'2'
p1435
(lp1436
I579
aI966
assS'604'
p1437
(dp1438
S'1'
p1439
(lp1440
I1
aI480
asS'2'
p1441
(lp1442
I481
aI976
assS'607'
p1443
(dp1444
S'1'
p1445
(lp1446
I1
aI654
asS'2'
p1447
(lp1448
I655
aI1072
assS'606'
p1449
(dp1450
S'1'
p1451
(lp1452
I1
aI610
asS'2'
p1453
(lp1454
I611
aI1276
assS'559'
p1455
(dp1456
S'1'
p1457
(lp1458
I1
aI500
asS'2'
p1459
(lp1460
I501
aI1194
assS'558'
p1461
(dp1462
S'1'
p1463
(lp1464
I1
aI476
asS'2'
p1465
(lp1466
I477
aI944
assS'603'
p1467
(dp1468
S'1'
p1469
(lp1470
I1
aI364
asS'2'
p1471
(lp1472
I365
aI806
assS'602'
p1473
(dp1474
S'1'
p1475
(lp1476
I1
aI544
asS'2'
p1477
(lp1478
I545
aI1090
assS'555'
p1479
(dp1480
S'1'
p1481
(lp1482
I1
aI546
asS'2'
p1483
(lp1484
I547
aI1038
assS'554'
p1485
(dp1486
S'1'
p1487
(lp1488
I1
aI642
asS'2'
p1489
(lp1490
I643
aI1298
assS'557'
p1491
(dp1492
S'1'
p1493
(lp1494
I1
aI494
asS'2'
p1495
(lp1496
I495
aI1036
assS'556'
p1497
(dp1498
S'1'
p1499
(lp1500
I1
aI514
asS'2'
p1501
(lp1502
I515
aI1066
assS'551'
p1503
(dp1504
S'1'
p1505
(lp1506
I1
aI598
asS'2'
p1507
(lp1508
I599
aI1118
assS'550'
p1509
(dp1510
S'1'
p1511
(lp1512
I1
aI502
asS'2'
p1513
(lp1514
I503
aI1150
assS'553'
p1515
(dp1516
S'1'
p1517
(lp1518
I1
aI470
asS'2'
p1519
(lp1520
I471
aI1042
assS'552'
p1521
(dp1522
S'1'
p1523
(lp1524
I1
aI412
asS'2'
p1525
(lp1526
I413
aI912
assS'750'
p1527
(dp1528
S'1'
p1529
(lp1530
I1
aI86
asS'2'
p1531
(lp1532
I87
aI174
assS'648'
p1533
(dp1534
S'1'
p1535
(lp1536
I1
aI766
asS'2'
p1537
(lp1538
I767
aI1292
assS'756'
p1539
(dp1540
S'1'
p1541
(lp1542
I1
aI104
asS'2'
p1543
(lp1544
I105
aI196
assS'749'
p1545
(dp1546
S'1'
p1547
(lp1548
I1
aI95
asS'2'
p1549
(lp1550
I96
aI167
assS'641'
p1551
(dp1552
S'1'
p1553
(lp1554
I1
aI640
asS'2'
p1555
(lp1556
I641
aI1234
assS'755'
p1557
(dp1558
S'1'
p1559
(lp1560
I1
aI83
asS'2'
p1561
(lp1562
I84
aI182
assS'640'
p1563
(dp1564
S'1'
p1565
(lp1566
I1
aI538
asS'2'
p1567
(lp1568
I539
aI1180
assS'778'
p1569
(dp1570
S'1'
p1571
(lp1572
I1
aI85
asS'2'
p1573
(lp1574
I86
aI189
assS'754'
p1575
(dp1576
S'1'
p1577
(lp1578
I1
aI79
asS'2'
p1579
(lp1580
I80
aI156
assS'777'
p1581
(dp1582
S'1'
p1583
(lp1584
I1
aI81
asS'2'
p1585
(lp1586
I82
aI173
assS'638'
p1587
(dp1588
S'1'
p1589
(lp1590
I1
aI584
asS'2'
p1591
(lp1592
I585
aI1188
assS'639'
p1593
(dp1594
S'1'
p1595
(lp1596
I1
aI572
asS'2'
p1597
(lp1598
I573
aI1252
assS'689'
p1599
(dp1600
S'1'
p1601
(lp1602
I1
aI654
asS'2'
p1603
(lp1604
I655
aI1458
assS'753'
p1605
(dp1606
S'1'
p1607
(lp1608
I1
aI93
asS'2'
p1609
(lp1610
I94
aI180
assS'715'
p1611
(dp1612
S'1'
p1613
(lp1614
I1
aI700
asS'2'
p1615
(lp1616
I701
aI1592
assS'688'
p1617
(dp1618
S'1'
p1619
(lp1620
I1
aI708
asS'2'
p1621
(lp1622
I709
aI1388
assS'775'
p1623
(dp1624
S'1'
p1625
(lp1626
I1
aI80
asS'2'
p1627
(lp1628
I81
aI140
assS'774'
p1629
(dp1630
S'1'
p1631
(lp1632
I1
aI91
asS'2'
p1633
(lp1634
I92
aI157
assS'618'
p1635
(dp1636
S'1'
p1637
(lp1638
I1
aI556
asS'2'
p1639
(lp1640
I557
aI1094
assS'619'
p1641
(dp1642
S'1'
p1643
(lp1644
I1
aI656
asS'2'
p1645
(lp1646
I657
aI1190
assS'766'
p1647
(dp1648
S'1'
p1649
(lp1650
I1
aI66
asS'2'
p1651
(lp1652
I67
aI139
assS'770'
p1653
(dp1654
S'1'
p1655
(lp1656
I1
aI82
asS'2'
p1657
(lp1658
I83
aI161
assS'773'
p1659
(dp1660
S'1'
p1661
(lp1662
I1
aI81
asS'2'
p1663
(lp1664
I82
aI187
assS'772'
p1665
(dp1666
S'1'
p1667
(lp1668
I1
aI78
asS'2'
p1669
(lp1670
I79
aI154
assS'612'
p1671
(dp1672
S'1'
p1673
(lp1674
I1
aI592
asS'2'
p1675
(lp1676
I593
aI1222
assS'613'
p1677
(dp1678
S'1'
p1679
(lp1680
I1
aI630
asS'2'
p1681
(lp1682
I631
aI1310
assS'610'
p1683
(dp1684
S'1'
p1685
(lp1686
I1
aI624
asS'2'
p1687
(lp1688
I625
aI1238
assS'611'
p1689
(dp1690
S'1'
p1691
(lp1692
I1
aI622
asS'2'
p1693
(lp1694
I623
aI1210
assS'616'
p1695
(dp1696
S'1'
p1697
(lp1698
I1
aI642
asS'2'
p1699
(lp1700
I643
aI1310
assS'617'
p1701
(dp1702
S'1'
p1703
(lp1704
I1
aI692
asS'2'
p1705
(lp1706
I693
aI1372
assS'614'
p1707
(dp1708
S'1'
p1709
(lp1710
I1
aI526
asS'2'
p1711
(lp1712
I527
aI1142
assS'615'
p1713
(dp1714
S'1'
p1715
(lp1716
I1
aI572
asS'2'
p1717
(lp1718
I573
aI1082
assS'649'
p1719
(dp1720
S'1'
p1721
(lp1722
I1
aI562
asS'2'
p1723
(lp1724
I563
aI1184
assS'710'
p1725
(dp1726
S'1'
p1727
(lp1728
I1
aI890
asS'2'
p1729
(lp1730
I891
aI1868
assS'489'
p1731
(dp1732
S'1'
p1733
(lp1734
I1
aI456
asS'2'
p1735
(lp1736
I457
aI1006
assS'488'
p1737
(dp1738
S'1'
p1739
(lp1740
I1
aI506
asS'2'
p1741
(lp1742
I507
aI902
assS'487'
p1743
(dp1744
S'1'
p1745
(lp1746
I1
aI466
asS'2'
p1747
(lp1748
I473
aI982
assS'486'
p1749
(dp1750
S'1'
p1751
(lp1752
I1
aI580
asS'2'
p1753
(lp1754
I581
aI1078
assS'485'
p1755
(dp1756
S'1'
p1757
(lp1758
I1
aI438
asS'2'
p1759
(lp1760
I439
aI920
assS'484'
p1761
(dp1762
S'1'
p1763
(lp1764
I1
aI512
asS'2'
p1765
(lp1766
I517
aI986
assS'483'
p1767
(dp1768
S'1'
p1769
(lp1770
I1
aI540
asS'2'
p1771
(lp1772
I541
aI984
assS'482'
p1773
(dp1774
S'1'
p1775
(lp1776
I1
aI572
asS'2'
p1777
(lp1778
I573
aI1088
assS'481'
p1779
(dp1780
S'1'
p1781
(lp1782
I1
aI566
asS'2'
p1783
(lp1784
I571
aI1016
assS'480'
p1785
(dp1786
S'1'
p1787
(lp1788
I1
aI448
asS'2'
p1789
(lp1790
I449
aI850
assS'744'
p1791
(dp1792
S'1'
p1793
(lp1794
I1
aI80
asS'2'
p1795
(lp1796
I81
aI197
assS'686'
p1797
(dp1798
S'1'
p1799
(lp1800
I1
aI748
asS'2'
p1801
(lp1802
I749
aI1524
assS'791'
p1803
(dp1804
S'1'
p1805
(lp1806
I1
aI73
asS'2'
p1807
(lp1808
I74
aI111
assS'705'
p1809
(dp1810
S'1'
p1811
(lp1812
I1
aI1098
asS'2'
p1813
(lp1814
I1099
aI1734
assS'732'
p1815
(dp1816
S'1'
p1817
(lp1818
I1
aI60
asS'2'
p1819
(lp1820
I61
aI130
assS'609'
p1821
(dp1822
S'1'
p1823
(lp1824
I1
aI466
asS'2'
p1825
(lp1826
I467
aI1200
assS'472'
p1827
(dp1828
S'1'
p1829
(lp1830
I1
aI424
asS'2'
p1831
(lp1832
I431
aI908
assS'473'
p1833
(dp1834
S'1'
p1835
(lp1836
I1
aI572
asS'2'
p1837
(lp1838
I573
aI1126
assS'768'
p1839
(dp1840
S'1'
p1841
(lp1842
I1
aI97
asS'2'
p1843
(lp1844
I98
aI197
assS'471'
p1845
(dp1846
S'1'
p1847
(lp1848
I1
aI520
asS'2'
p1849
(lp1850
I521
aI1076
assS'476'
p1851
(dp1852
S'1'
p1853
(lp1854
I1
aI434
asS'2'
p1855
(lp1856
I435
aI942
assS'477'
p1857
(dp1858
S'1'
p1859
(lp1860
I1
aI518
asS'2'
p1861
(lp1862
I519
aI990
assS'474'
p1863
(dp1864
S'1'
p1865
(lp1866
I1
aI532
asS'2'
p1867
(lp1868
I533
aI862
assS'475'
p1869
(dp1870
S'1'
p1871
(lp1872
I1
aI386
asS'2'
p1873
(lp1874
I393
aI854
assS'685'
p1875
(dp1876
S'1'
p1877
(lp1878
I1
aI680
asS'2'
p1879
(lp1880
I681
aI1324
assS'684'
p1881
(dp1882
S'1'
p1883
(lp1884
I1
aI770
asS'2'
p1885
(lp1886
I771
aI1502
assS'478'
p1887
(dp1888
S'1'
p1889
(lp1890
I1
aI430
asS'2'
p1891
(lp1892
I435
aI828
assS'479'
p1893
(dp1894
S'1'
p1895
(lp1896
I1
aI522
asS'2'
p1897
(lp1898
I523
aI1034
assS'681'
p1899
(dp1900
S'1'
p1901
(lp1902
I1
aI736
asS'2'
p1903
(lp1904
I737
aI1744
assS'680'
p1905
(dp1906
S'1'
p1907
(lp1908
I1
aI828
asS'2'
p1909
(lp1910
I829
aI1602
assS'683'
p1911
(dp1912
S'1'
p1913
(lp1914
I1
aI584
asS'2'
p1915
(lp1916
I585
aI1230
assS'682'
p1917
(dp1918
S'1'
p1919
(lp1920
I1
aI710
asS'2'
p1921
(lp1922
I711
aI1486
ass.