(dp0
V344
p1
(dp2
V1
p3
(lp4
I1
aI336
asV3
p5
(lp6
I37
aI992
asV2
p7
(lp8
I13
aI672
asV4
p9
(lp10
I53
aI1344
assV345
p11
(dp12
g3
(lp13
I1
aI368
asg5
(lp14
I29
aI1056
asg7
(lp15
I13
aI704
asg9
(lp16
I1057
aI1392
assV346
p17
(dp18
g3
(lp19
I1
aI336
asg5
(lp20
I31
aI1024
asg7
(lp21
I11
aI688
asg9
(lp22
I51
aI1241
assV347
p23
(dp24
g3
(lp25
I1
aI354
asg5
(lp26
I41
aI1042
asg7
(lp27
I13
aI690
asg9
(lp28
I61
aI1378
assV340
p29
(dp30
g3
(lp31
I1
aI352
asg5
(lp32
I1
aI1056
asg7
(lp33
I353
aI704
asg9
(lp34
I33
aI1408
assV341
p35
(dp36
g3
(lp37
I1
aI368
asg5
(lp38
I7
aI1056
asg7
(lp39
I369
aI720
asg9
(lp40
I23
aI1392
assV342
p41
(dp42
g3
(lp43
I1
aI336
asg5
(lp44
I41
aI1008
asg7
(lp45
I25
aI672
asg9
(lp46
I53
aI1360
assV343
p47
(dp48
g3
(lp49
I1
aI352
asg5
(lp50
I53
aI1056
asg7
(lp51
I25
aI704
asg9
(lp52
I89
aI1376
assV348
p53
(dp54
g3
(lp55
I1
aI368
asg5
(lp56
I33
aI1104
asg7
(lp57
I13
aI736
asg9
(lp58
I1105
aI1472
assV349
p59
(dp60
g3
(lp61
I1
aI384
asg5
(lp62
I33
aI1152
asg7
(lp63
I25
aI768
asg9
(lp64
I1153
aI1536
assV298
p65
(dp66
g3
(lp67
I1
aI320
asg5
(lp68
I45
aI944
asg7
(lp69
I25
aI624
asg9
(lp70
I945
aI1248
assV299
p71
(dp72
g3
(lp73
I1
aI304
asg5
(lp74
I625
aI928
asg7
(lp75
I25
aI624
asg9
(lp76
I37
aI1248
assV296
p77
(dp78
g5
(lp79
I29
aI784
asg7
(lp80
I225
aI464
asg9
(lp81
I37
aI1104
assV297
p82
(dp83
g3
(lp84
I1
aI336
asg5
(lp85
I53
aI976
asg7
(lp86
I29
aI656
assV294
p87
(dp88
g3
(lp89
I1
aI192
asg5
(lp90
I41
aI512
asg7
(lp91
I25
aI352
asg9
(lp92
I513
aI752
assV295
p93
(dp94
g3
(lp95
I1
aI256
asg5
(lp96
I497
aI736
asg7
(lp97
I29
aI496
asg9
(lp98
I53
aI976
assV292
p99
(dp100
g3
(lp101
I1
aI204
asg5
(lp102
I490
aI757
asg7
(lp103
I205
aI467
asg9
(lp104
I758
aI944
assV293
p105
(dp106
g3
(lp107
I1
aI112
asg5
(lp108
I61
aI336
asg7
(lp109
I49
aI208
asg9
(lp110
I73
aI496
assV290
p111
(dp112
g3
(lp113
I1
aI208
asg5
(lp114
I33
aI576
asg7
(lp115
I17
aI400
asg9
(lp116
I65
aI688
assV291
p117
(dp118
g3
(lp119
I1
aI249
asg5
(lp120
I42
aI592
asg7
(lp121
I250
aI352
asg9
(lp122
I57
aI832
assV199
p123
(dp124
g3
(lp125
I1
aI169
asg5
(lp126
I457
aI832
asg7
(lp127
I171
aI455
asg9
(lp128
I833
aI1168
assV198
p129
(dp130
g3
(lp131
I1
aI280
asg5
(lp132
I617
aI864
asg7
(lp133
I281
aI615
asg9
(lp134
I865
aI1141
assV195
p135
(dp136
g3
(lp137
I1
aI105
asg5
(lp138
I437
aI753
asg7
(lp139
I107
aI436
asg9
(lp140
I755
aI1056
assV194
p141
(dp142
g3
(lp143
I1
aI194
asg5
(lp144
I485
aI793
asg7
(lp145
I195
aI484
asg9
(lp146
I795
aI1055
assV197
p147
(dp148
g3
(lp149
I1
aI233
asg5
(lp150
I513
aI827
asg7
(lp151
I235
aI511
asg9
(lp152
I829
aI1153
assV196
p153
(dp154
g3
(lp155
I1
aI113
asg5
(lp156
I409
aI745
asg7
(lp157
I95
aI408
asg9
(lp158
I747
aI1087
assV191
p159
(dp160
g3
(lp161
I1
aI168
asg5
(lp162
I435
aI673
asg7
(lp163
I169
aI434
asg9
(lp164
I675
aI959
assV190
p165
(dp166
g3
(lp167
I1
aI117
asg5
(lp168
I395
aI682
asg7
(lp169
I119
aI393
asg9
(lp170
I683
aI959
assV193
p171
(dp172
g3
(lp173
I1
aI174
asg5
(lp174
I415
aI706
asg7
(lp175
I175
aI413
asg9
(lp176
I707
aI960
assV192
p177
(dp178
g3
(lp179
I1
aI91
asg5
(lp180
I339
aI554
asg7
(lp181
I75
aI337
asg9
(lp182
I555
aI753
assV270
p183
(dp184
g3
(lp185
I1
aI208
asg5
(lp186
I465
aI720
asg7
(lp187
I209
aI464
asg9
(lp188
I721
aI976
assV271
p189
(dp190
g3
(lp191
I1
aI256
asg5
(lp192
I513
aI751
asg7
(lp193
I257
aI512
asg9
(lp194
I753
aI1024
assV272
p195
(dp196
g3
(lp197
I1
aI240
asg5
(lp198
I481
aI704
asg7
(lp199
I241
aI480
asg9
(lp200
I705
aI912
assV273
p201
(dp202
g3
(lp203
I1
aI224
asg5
(lp204
I529
aI848
asg7
(lp205
I225
aI528
asg9
(lp206
I849
aI1184
assV274
p207
(dp208
g3
(lp209
I1
aI336
asg5
(lp210
I657
aI976
asg7
(lp211
I337
aI656
asg9
(lp212
I977
aI1248
assV275
p213
(dp214
g3
(lp215
I1
aI208
asg5
(lp216
I545
aI896
asg7
(lp217
I209
aI544
asg9
(lp218
I897
aI1248
assV276
p219
(dp220
g3
(lp221
I1
aI352
asg5
(lp222
I689
aI1040
asg7
(lp223
I353
aI688
asg9
(lp224
I1041
aI1440
assV277
p225
(dp226
g5
(lp227
I753
aI1184
asg7
(lp228
I353
aI752
asg9
(lp229
I1185
aI1600
assV278
p230
(dp231
g3
(lp232
I1
aI302
asg5
(lp233
I41
aI896
asg7
(lp234
I29
aI668
asg9
(lp235
I49
aI1120
assV279
p236
(dp237
g3
(lp238
I1
aI304
asg5
(lp239
I27
aI1056
asg7
(lp240
I21
aI711
asg9
(lp241
I61
aI1392
assV443
p242
(dp243
g3
(lp244
I2
aI945
asg7
(lp245
I947
aI1866
assV442
p246
(dp247
g3
(lp248
I2
aI920
asg5
(lp249
I1897
aI2854
asg7
(lp250
I921
aI1896
asg9
(lp251
I2855
aI3790
assV441
p252
(dp253
g3
(lp254
I2
aI917
asg5
(lp255
I1855
aI2798
asg7
(lp256
I919
aI1853
asg9
(lp257
I2799
aI3741
assV440
p258
(dp259
g3
(lp260
I2
aI956
asg5
(lp261
I1917
aI2900
asg7
(lp262
I957
aI1915
asg9
(lp263
I2901
aI3824
assV108
p264
(dp265
g3
(lp266
I1
aI152
asg5
(lp267
I211
aI305
asg7
(lp268
I153
aI209
asV5
p269
(lp270
I353
aI422
asg9
(lp271
I307
aI351
asV6
p272
(lp273
I425
aI508
assV109
p274
(dp275
g3
(lp276
I1
aI116
asg5
(lp277
I277
aI385
asg7
(lp278
I117
aI276
asg269
(lp279
I485
aI610
asg9
(lp280
I387
aI484
asg272
(lp281
I611
aI719
assV102
p282
(dp283
g3
(lp284
I1
aI39
asg5
(lp285
I133
aI173
asg7
(lp286
I41
aI131
asg269
(lp287
I217
aI253
asg9
(lp288
I175
aI216
asg272
(lp289
I255
aI277
assV103
p290
(dp291
g3
(lp292
I1
aI43
asg5
(lp293
I133
aI168
asg7
(lp294
I45
aI131
asg269
(lp295
I231
aI278
asg9
(lp296
I171
aI229
asg272
(lp297
I279
aI354
assV100
p298
(dp299
g3
(lp300
I1
aI57
asg5
(lp301
I137
aI212
asg7
(lp302
I59
aI135
asg269
(lp303
I354
aI419
asg9
(lp304
I213
aI351
asV7
p305
(lp306
I499
aI580
asg272
(lp307
I422
aI497
asV8
p308
(lp309
I581
aI702
assV101
p310
(dp311
g3
(lp312
I1
aI49
asg5
(lp313
I113
aI173
asg7
(lp314
I51
aI112
asg9
(lp315
I175
aI248
asg305
(lp316
I311
aI353
asg308
(lp317
I355
aI391
assV106
p318
(dp319
g3
(lp320
I1
aI95
asg5
(lp321
I157
aI239
asg7
(lp322
I97
aI156
asg269
(lp323
I343
aI465
asg9
(lp324
I241
aI342
asg272
(lp325
I467
aI530
assV107
p326
(dp327
g3
(lp328
I1
aI151
asg5
(lp329
I243
aI330
asg7
(lp330
I153
aI241
asg9
(lp331
I331
aI405
assV104
p332
(dp333
g3
(lp334
I1
aI64
asg5
(lp335
I139
aI197
asg7
(lp336
I65
aI137
asg269
(lp337
I241
aI296
asg9
(lp338
I199
aI240
asg272
(lp339
I297
aI340
assV105
p340
(dp341
g3
(lp342
I1
aI43
asg5
(lp343
I165
aI190
asg7
(lp344
I45
aI163
asg269
(lp345
I253
aI319
asg9
(lp346
I191
aI252
asg272
(lp347
I321
aI394
assV39
p348
(dp349
g3
(lp350
I1
aI76
asg5
(lp351
I149
aI200
asg7
(lp352
I77
aI148
asg269
(lp353
I321
aI372
asg9
(lp354
I201
aI319
asg305
(lp355
I389
aI432
asg272
(lp356
I373
aI388
asV9
p357
(lp358
I489
aI530
asg308
(lp359
I433
aI488
assV38
p360
(dp361
g3
(lp362
I1
aI56
asg5
(lp363
I89
aI124
asg7
(lp364
I57
aI88
asg269
(lp365
I255
aI334
asg9
(lp366
I125
aI254
asg305
(lp367
I367
aI410
asg272
(lp368
I335
aI366
asg357
(lp369
I487
aI528
asg308
(lp370
I411
aI486
assV33
p371
(dp372
g3
(lp373
I1
aI64
asg5
(lp374
I117
aI180
asg7
(lp375
I65
aI116
asg269
(lp376
I269
aI368
asg9
(lp377
I181
aI268
asg305
(lp378
I413
aI460
asg272
(lp379
I369
aI412
asg357
(lp380
I533
aI582
asg308
(lp381
I461
aI532
assV32
p382
(dp383
g3
(lp384
I1
aI32
asg5
(lp385
I69
aI92
asg7
(lp386
I33
aI68
asg269
(lp387
I201
aI232
asg9
(lp388
I93
aI200
asg305
(lp389
I253
aI276
asg272
(lp390
I233
aI252
asg357
(lp391
I321
aI364
asg308
(lp392
I277
aI320
assV31
p393
(dp394
g5
(lp395
I49
aI87
asg269
(lp396
I137
aI175
asg9
(lp397
I89
aI135
asg305
(lp398
I201
aI220
asg272
(lp399
I177
aI199
asg357
(lp400
I249
aI268
asg308
(lp401
I221
aI248
assV30
p402
(dp403
g3
(lp404
I1
aI450
asg5
(lp405
I57
aI74
asg7
(lp406
I29
aI56
asg269
(lp407
I135
aI154
asg9
(lp408
I77
aI134
asg305
(lp409
I171
aI190
asg272
(lp410
I155
aI170
asg357
(lp411
I211
aI226
asg308
(lp412
I191
aI210
assV37
p413
(dp414
g3
(lp415
I1
aI40
asg5
(lp416
I93
aI128
asg7
(lp417
I41
aI92
asg269
(lp418
I231
aI282
asg9
(lp419
I129
aI230
asg305
(lp420
I364
aI426
asg272
(lp421
I283
aI362
asg357
(lp422
I443
aI470
asg308
(lp423
I427
aI442
assV36
p424
(dp425
g3
(lp426
I1
aI52
asg5
(lp427
I85
aI120
asg7
(lp428
I53
aI84
asg269
(lp429
I250
aI280
asg9
(lp430
I121
aI247
asg305
(lp431
I297
aI344
asg272
(lp432
I281
aI296
asg357
(lp433
I365
aI393
asg308
(lp434
I344
aI364
assV35
p435
(dp436
g3
(lp437
I1
aI64
asg5
(lp438
I109
aI156
asg7
(lp439
I65
aI108
asg269
(lp440
I277
aI316
asg9
(lp441
I157
aI276
asg305
(lp442
I345
aI374
asg272
(lp443
I317
aI344
asg357
(lp444
I399
aI410
asg308
(lp445
I375
aI398
assV34
p446
(dp447
g3
(lp448
I1
aI48
asg5
(lp449
I89
aI128
asg7
(lp450
I49
aI87
asg269
(lp451
I235
aI274
asg9
(lp452
I129
aI234
asg305
(lp453
I311
aI362
asg272
(lp454
I275
aI311
asg357
(lp455
I447
aI492
asg308
(lp456
I363
aI426
assV438
p457
(dp458
g3
(lp459
I2
aI900
asg5
(lp460
I1909
aI2716
asg7
(lp461
I901
aI1908
asg9
(lp462
I2717
aI3608
assV439
p463
(dp464
g3
(lp465
I2
aI1192
asg5
(lp466
I2197
aI3188
asg7
(lp467
I1193
aI2196
asg9
(lp468
I3189
aI4060
assV436
p469
(dp470
g3
(lp471
I2
aI943
asg5
(lp472
I1919
aI2878
asg7
(lp473
I945
aI1917
asg9
(lp474
I2879
aI3874
assV437
p475
(dp476
g3
(lp477
I2
aI1008
asg5
(lp478
I2017
aI3024
asg7
(lp479
I1009
aI2016
asg9
(lp480
I3025
aI4032
assV434
p481
(dp482
g3
(lp483
I2
aI908
asg5
(lp484
I1821
aI2719
asg7
(lp485
I909
aI1820
asg9
(lp486
I2721
aI3632
assV435
p487
(dp488
g3
(lp489
I2
aI900
asg5
(lp490
I1809
aI2752
asg7
(lp491
I901
aI1808
asg9
(lp492
I2753
aI3680
assV432
p493
(dp494
g3
(lp495
I2
aI856
asg5
(lp496
I1709
aI2624
asg7
(lp497
I857
aI1708
asg9
(lp498
I2625
aI3546
assV433
p499
(dp500
g3
(lp501
I2
aI888
asg5
(lp502
I1789
aI2692
asg7
(lp503
I889
aI1788
asg9
(lp504
I2693
aI3604
assV430
p505
(dp506
g3
(lp507
I2
aI724
asg5
(lp508
I1473
aI2512
asg7
(lp509
I725
aI1472
asg9
(lp510
I2513
aI3536
assV431
p511
(dp512
g3
(lp513
I2
aI1004
asg5
(lp514
I2017
aI2960
asg7
(lp515
I1005
aI2016
asg9
(lp516
I2961
aI3704
assV339
p517
(dp518
g3
(lp519
I1
aI288
asg5
(lp520
I577
aI912
asg7
(lp521
I17
aI576
asg9
(lp522
I29
aI1264
assV338
p523
(dp524
g5
(lp525
I545
aI816
asg7
(lp526
I273
aI544
asg9
(lp527
I25
aI1088
assV335
p528
(dp529
g3
(lp530
I1
aI240
asg5
(lp531
I51
aI864
asg7
(lp532
I41
aI512
asg9
(lp533
I79
aI1200
assV334
p534
(dp535
g3
(lp536
I1
aI256
asg5
(lp537
I481
aI720
asg7
(lp538
I11
aI480
asg9
(lp539
I721
aI1008
assV337
p540
(dp541
g3
(lp542
I1
aI384
asg5
(lp543
I11
aI1168
asg7
(lp544
I1
aI768
asg9
(lp545
I1169
aI1456
assV336
p546
(dp547
g3
(lp548
I1
aI352
asg5
(lp549
I49
aI1056
asg7
(lp550
I17
aI704
asg9
(lp551
I65
aI1392
assV331
p552
(dp553
g3
(lp554
I1
aI272
asg5
(lp555
I25
aI816
asg7
(lp556
I13
aI544
asg9
(lp557
I41
aI1072
assV330
p558
(dp559
g3
(lp560
I1
aI240
asg5
(lp561
I53
aI768
asg9
(lp562
I769
aI1040
assV333
p563
(dp564
g3
(lp565
I1
aI240
asg5
(lp566
I481
aI720
asg7
(lp567
I21
aI480
asg9
(lp568
I721
aI976
assV332
p569
(dp570
g3
(lp571
I1
aI256
asg5
(lp572
I45
aI768
asg7
(lp573
I17
aI512
asg9
(lp574
I69
aI1008
assg272
(dp575
V11
p576
(lp577
I129
aI141
asV10
p578
(lp579
I89
aI128
asV13
p580
(lp581
I151
aI201
asV12
p582
(lp583
I143
aI149
asV15
p584
(lp585
I213
aI228
asV14
p586
(lp587
I203
aI211
asV17
p588
(lp589
I241
aI257
asV16
p590
(lp591
I229
aI240
asg3
(lp592
I1
aI12
asg5
(lp593
I17
aI24
asg7
(lp594
I13
aI16
asg269
(lp595
I53
aI65
asg9
(lp596
I25
aI52
asg305
(lp597
I75
aI78
asg272
(lp598
I67
aI73
asg308
(lp599
I79
aI87
assV99
p600
(dp601
g3
(lp602
I1
aI58
asg5
(lp603
I139
aI278
asg7
(lp604
I59
aI137
asg269
(lp605
I437
aI475
asg9
(lp606
I279
aI435
asg305
(lp607
I537
aI577
asg272
(lp608
I477
aI535
asg357
(lp609
I703
aI746
asg308
(lp610
I579
aI702
assV98
p611
(dp612
g3
(lp613
I1
aI90
asg5
(lp614
I173
aI225
asg7
(lp615
I91
aI171
asg269
(lp616
I379
aI430
asg9
(lp617
I227
aI378
asg305
(lp618
I489
aI603
asg272
(lp619
I431
aI488
asg357
(lp620
I681
aI757
asg308
(lp621
I605
aI680
assV91
p622
(dp623
g3
(lp624
I1
aI210
asg5
(lp625
I257
aI297
asg7
(lp626
I211
aI256
asg269
(lp627
I439
aI606
asg9
(lp628
I299
aI438
asg305
(lp629
I705
aI819
asg272
(lp630
I607
aI703
asg357
(lp631
I951
aI1019
asg308
(lp632
I821
aI949
assV90
p633
(dp634
g3
(lp635
I1
aI168
asg5
(lp636
I241
aI339
asg7
(lp637
I169
aI239
asg269
(lp638
I479
aI577
asg9
(lp639
I341
aI478
asg305
(lp640
I615
aI721
asg272
(lp641
I579
aI613
asg357
(lp642
I769
aI839
asg308
(lp643
I723
aI769
assV93
p644
(dp645
g3
(lp646
I1
aI114
asg5
(lp647
I163
aI208
asg7
(lp648
I115
aI161
asg269
(lp649
I319
aI413
asg9
(lp650
I209
aI318
asg305
(lp651
I475
aI538
asg272
(lp652
I415
aI474
asg357
(lp653
I657
aI810
asg308
(lp654
I539
aI655
assV92
p655
(dp656
g3
(lp657
I1
aI101
asg5
(lp658
I149
aI227
asg7
(lp659
I103
aI147
asg269
(lp660
I363
aI457
asg9
(lp661
I229
aI361
asg305
(lp662
I595
aI725
asg272
(lp663
I459
aI594
asg357
(lp664
I863
aI895
asg308
(lp665
I727
aI861
assV95
p666
(dp667
g3
(lp668
I1
aI76
asg5
(lp669
I193
aI300
asg7
(lp670
I77
aI191
asg269
(lp671
I431
aI499
asg9
(lp672
I301
aI430
asg305
(lp673
I559
aI607
asg272
(lp674
I501
aI558
asg357
(lp675
I719
aI767
asg308
(lp676
I610
aI718
assV94
p677
(dp678
g3
(lp679
I1
aI93
asg5
(lp680
I195
aI258
asg7
(lp681
I95
aI194
asg269
(lp682
I375
aI486
asg9
(lp683
I259
aI373
asg305
(lp684
I591
aI677
asg272
(lp685
I487
aI589
asg357
(lp686
I791
aI876
asg308
(lp687
I679
aI789
assV97
p688
(dp689
g3
(lp690
I1
aI94
asg5
(lp691
I155
aI245
asg7
(lp692
I95
aI153
asg269
(lp693
I387
aI413
asg9
(lp694
I247
aI385
asg305
(lp695
I487
aI549
asg272
(lp696
I415
aI486
asg357
(lp697
I663
aI722
asg308
(lp698
I551
aI661
assV96
p699
(dp700
g3
(lp701
I1
aI119
asg5
(lp702
I151
aI268
asg7
(lp703
I121
aI150
asg269
(lp704
I401
aI556
asg9
(lp705
I269
aI400
asg305
(lp706
I643
aI711
asg272
(lp707
I557
aI642
asg357
(lp708
I825
aI913
asg308
(lp709
I713
aI824
assV238
p710
(dp711
g3
(lp712
I1
aI282
asg5
(lp713
I697
aI1075
asg7
(lp714
I283
aI696
asg9
(lp715
I1077
aI1535
assV239
p716
(dp717
g3
(lp718
I1
aI295
asg5
(lp719
I703
aI1023
asg7
(lp720
I297
aI701
assV234
p721
(dp722
g3
(lp723
I1
aI176
asg5
(lp724
I477
aI820
asg7
(lp725
I177
aI476
asg9
(lp726
I821
aI1120
assV235
p727
(dp728
g3
(lp729
I1
aI313
asg5
(lp730
I633
aI1072
asg7
(lp731
I315
aI631
asg9
(lp732
I1073
aI1471
assV236
p733
(dp734
g3
(lp735
I1
aI138
asg5
(lp736
I409
aI707
asg7
(lp737
I139
aI408
asg9
(lp738
I709
aI960
assV237
p739
(dp740
g3
(lp741
I1
aI331
asg5
(lp742
I513
aI826
asg7
(lp743
I333
aI511
asg9
(lp744
I827
aI1162
assV230
p745
(dp746
g3
(lp747
I1
aI160
asg5
(lp748
I353
aI490
asg7
(lp749
I161
aI351
asg9
(lp750
I491
aI704
assV231
p751
(dp752
g3
(lp753
I1
aI147
asg5
(lp754
I455
aI821
asg7
(lp755
I149
aI453
asg9
(lp756
I823
aI1152
assV232
p757
(dp758
g3
(lp759
I1
aI224
asg5
(lp760
I473
aI704
asg7
(lp761
I225
aI471
asg9
(lp762
I705
aI871
assV233
p763
(dp764
g3
(lp765
I1
aI234
asg5
(lp766
I503
aI689
asg7
(lp767
I235
aI502
asg9
(lp768
I691
aI928
assg3
(dp769
V24
p770
(lp771
I147
aI150
asV25
p772
(lp773
I151
aI168
asV26
p774
(lp775
I169
aI171
asV27
p776
(lp777
I173
aI175
asV20
p778
(lp779
I125
aI128
asV21
p780
(lp781
I129
aI141
asV23
p782
(lp783
I143
aI145
asV28
p784
(lp785
I177
aI190
asg3
(lp786
I1
aI9
asg5
(lp787
I13
aI24
asg269
(lp788
I29
aI36
asg9
(lp789
I25
aI27
asg305
(lp790
I41
aI43
asg272
(lp791
I37
aI40
asg357
(lp792
I49
aI64
asg308
(lp793
I45
aI47
asV11
p794
(lp795
I71
aI72
asV10
p796
(lp797
I65
aI69
asV13
p798
(lp799
I77
aI83
asV12
p800
(lp801
I73
aI75
asV15
p802
(lp803
I89
aI93
asV14
p804
(lp805
I85
aI88
asV16
p806
(lp807
I95
aI120
asV19
p808
(lp809
I123
aI124
asV31
p810
(lp811
I195
aI200
asV30
p812
(lp813
I191
aI193
assV146
p814
(dp815
g3
(lp816
I1
aI92
asg5
(lp817
I221
aI350
asg7
(lp818
I93
aI219
asg9
(lp819
I351
aI488
assV147
p820
(dp821
g3
(lp822
I1
aI114
asg5
(lp823
I215
aI321
asg7
(lp824
I115
aI213
asg9
(lp825
I323
aI441
assV144
p826
(dp827
g3
(lp828
I1
aI141
asg5
(lp829
I255
aI389
asg7
(lp830
I143
aI254
asg9
(lp831
I391
aI552
assV145
p832
(dp833
g3
(lp834
I1
aI120
asg5
(lp835
I249
aI375
asg7
(lp836
I121
aI248
asg9
(lp837
I377
aI492
assV142
p838
(dp839
g3
(lp840
I1
aI128
asg5
(lp841
I273
aI408
asg7
(lp842
I129
aI272
asg9
(lp843
I409
aI556
assV143
p844
(dp845
g3
(lp846
I1
aI127
asg5
(lp847
I223
aI317
asg7
(lp848
I129
aI221
asg9
(lp849
I319
aI461
assV140
p850
(dp851
g3
(lp852
I1
aI120
asg5
(lp853
I281
aI407
asg7
(lp854
I121
aI280
asg9
(lp855
I409
aI551
assV141
p856
(dp857
g3
(lp858
I1
aI143
asg5
(lp859
I273
aI376
asg7
(lp860
I145
aI271
asg9
(lp861
I377
aI488
assV148
p862
(dp863
g3
(lp864
I1
aI130
asg5
(lp865
I239
aI381
asg7
(lp866
I131
aI237
asg9
(lp867
I383
aI501
assV149
p868
(dp869
g3
(lp870
I1
aI100
asg5
(lp871
I197
aI299
asg7
(lp872
I101
aI196
asg9
(lp873
I301
aI405
assV133
p874
(dp875
g3
(lp876
I1
aI228
asg5
(lp877
I321
aI328
asg7
(lp878
I229
aI319
asg9
(lp879
I339
aI493
assV132
p880
(dp881
g3
(lp882
I1
aI266
asg5
(lp883
I389
aI513
asg7
(lp884
I267
aI388
asg9
(lp885
I515
aI528
assV131
p886
(dp887
g3
(lp888
I1
aI190
asg5
(lp889
I335
aI473
asg7
(lp890
I191
aI334
asg9
(lp891
I475
aI523
assV130
p892
(dp893
g3
(lp894
I1
aI96
asg5
(lp895
I159
aI232
asg7
(lp896
I97
aI158
asg269
(lp897
I333
aI391
asg9
(lp898
I233
aI331
asg272
(lp899
I393
aI459
assV137
p900
(dp901
g3
(lp902
I1
aI119
asg5
(lp903
I239
aI374
asg7
(lp904
I119
aI237
asg9
(lp905
I375
aI462
assV136
p906
(dp907
g3
(lp908
I1
aI121
asg5
(lp909
I241
aI346
asg7
(lp910
I123
aI240
asg9
(lp911
I347
aI431
assV135
p912
(dp913
g3
(lp914
I1
aI119
asg5
(lp915
I243
aI337
asg7
(lp916
I121
aI242
asg9
(lp917
I345
aI450
assV134
p918
(dp919
g3
(lp920
I1
aI106
asg5
(lp921
I221
aI319
asg7
(lp922
I109
aI220
asg9
(lp923
I321
aI417
assV139
p924
(dp925
g3
(lp926
I1
aI128
asg5
(lp927
I273
aI414
asg7
(lp928
I129
aI272
asg9
(lp929
I417
aI550
assV138
p930
(dp931
g3
(lp932
I1
aI141
asg5
(lp933
I259
aI391
asg7
(lp934
I143
aI258
asg9
(lp935
I393
aI536
assV27
p936
(dp937
g3
(lp938
I1
aI410
asg5
(lp939
I67
aI96
asg7
(lp940
I17
aI66
asg269
(lp941
I173
aI211
asg9
(lp942
I97
aI171
asg305
(lp943
I257
aI279
asg272
(lp944
I213
aI255
asg357
(lp945
I305
aI325
asg308
(lp946
I281
aI304
assV20
p947
(dp948
g3
(lp949
I1
aI35
asg5
(lp950
I69
aI107
asg7
(lp951
I37
aI67
asg269
(lp952
I181
aI219
asg9
(lp953
I109
aI179
asg305
(lp954
I269
aI303
asg272
(lp955
I221
aI267
asg357
(lp956
I349
aI365
asg308
(lp957
I305
aI348
assV21
p958
(dp959
g3
(lp960
I1
aI40
asg5
(lp961
I65
aI87
asg7
(lp962
I41
aI63
asg269
(lp963
I141
aI171
asg305
(lp964
I197
aI220
asg272
(lp965
I173
aI195
asg357
(lp966
I245
aI267
asg308
(lp967
I221
aI244
assV22
p968
(dp969
g3
(lp970
I1
aI27
asg5
(lp971
I69
aI96
asg7
(lp972
I29
aI67
asg269
(lp973
I141
aI228
asg9
(lp974
I97
aI140
asg305
(lp975
I261
aI279
asg272
(lp976
I229
aI259
asg357
(lp977
I305
aI316
asg308
(lp978
I281
aI304
assV23
p979
(dp980
g3
(lp981
I1
aI346
asg5
(lp982
I85
aI119
asg7
(lp983
I53
aI83
asg269
(lp984
I163
aI182
asg9
(lp985
I121
aI162
asg272
(lp986
I183
aI205
asg357
(lp987
I259
aI274
asg308
(lp988
I231
aI258
assV407
p989
(dp990
g3
(lp991
I1
aI704
asg5
(lp992
I1361
aI2016
asg7
(lp993
I705
aI1360
asg9
(lp994
I2017
aI2672
assV406
p995
(dp996
g3
(lp997
I1
aI704
asg5
(lp998
I1409
aI2112
asg7
(lp999
I705
aI1408
asg9
(lp1000
I2113
aI2816
assV405
p1001
(dp1002
g3
(lp1003
I1
aI704
asg5
(lp1004
I1409
aI2112
asg7
(lp1005
I705
aI1408
asg9
(lp1006
I2113
aI2816
assV404
p1007
(dp1008
g3
(lp1009
I1
aI544
asg5
(lp1010
I1089
aI1632
asg7
(lp1011
I545
aI1088
asg9
(lp1012
I1633
aI2176
assV403
p1013
(dp1014
g3
(lp1015
I1
aI544
asg5
(lp1016
I1089
aI1632
asg7
(lp1017
I545
aI1088
asg9
(lp1018
I1633
aI2176
assV402
p1019
(dp1020
g3
(lp1021
I1
aI704
asg5
(lp1022
I1409
aI2112
asg7
(lp1023
I705
aI1408
asg9
(lp1024
I2113
aI2816
assV401
p1025
(dp1026
g3
(lp1027
I1
aI704
asg5
(lp1028
I1409
aI2112
asg7
(lp1029
I705
aI1408
asg9
(lp1030
I2113
aI2816
assV400
p1031
(dp1032
g3
(lp1033
I1
aI560
asg5
(lp1034
I1121
aI1664
asg7
(lp1035
I561
aI1120
asg9
(lp1036
I1665
aI2208
assV409
p1037
(dp1038
g3
(lp1039
I1
aI448
asg5
(lp1040
I881
aI1296
asg7
(lp1041
I449
aI880
asg9
(lp1042
I1297
aI1728
assV408
p1043
(dp1044
g3
(lp1045
I1
aI656
asg5
(lp1046
I1313
aI1968
asg7
(lp1047
I657
aI1312
asg9
(lp1048
I1969
aI2512
assV379
p1049
(dp1050
g3
(lp1051
I1
aI400
asg5
(lp1052
I833
aI1248
asg7
(lp1053
I401
aI832
asg9
(lp1054
I1249
aI1680
assV378
p1055
(dp1056
g3
(lp1057
I1
aI384
asg5
(lp1058
I785
aI1216
asg7
(lp1059
I385
aI784
asg9
(lp1060
I1217
aI1632
assV371
p1061
(dp1062
g3
(lp1063
I1
aI512
asg5
(lp1064
I1025
aI1536
asg7
(lp1065
I513
aI1024
asg9
(lp1066
I1537
aI2000
assV370
p1067
(dp1068
g3
(lp1069
I1
aI528
asg5
(lp1070
I1057
aI1584
asg7
(lp1071
I529
aI1056
asg9
(lp1072
I1585
aI2096
assV373
p1073
(dp1074
g3
(lp1075
I1
aI448
asg5
(lp1076
I881
aI1264
asg7
(lp1077
I449
aI880
asg9
(lp1078
I1265
aI1648
assV372
p1079
(dp1080
g3
(lp1081
I1
aI496
asg5
(lp1082
I961
aI1424
asg7
(lp1083
I497
aI960
asg9
(lp1084
I1425
aI1888
assV375
p1085
(dp1086
g3
(lp1087
I1
aI416
asg5
(lp1088
I753
aI1120
asg7
(lp1089
I417
aI752
asg9
(lp1090
I1121
aI1536
assV374
p1091
(dp1092
g3
(lp1093
I1
aI384
asg5
(lp1094
I769
aI1184
asg7
(lp1095
I385
aI768
asg9
(lp1096
I1185
aI1568
assV377
p1097
(dp1098
g3
(lp1099
I1
aI464
asg5
(lp1100
I945
aI1392
asg7
(lp1101
I465
aI944
asg9
(lp1102
I1393
aI1808
assV376
p1103
(dp1104
g3
(lp1105
I1
aI464
asg5
(lp1106
I929
aI1424
asg7
(lp1107
I465
aI928
asg9
(lp1108
I1425
aI1888
assV393
p1109
(dp1110
g3
(lp1111
I1
aI328
asg5
(lp1112
I681
aI1072
asg7
(lp1113
I329
aI680
asg9
(lp1114
I1073
aI1624
assV392
p1115
(dp1116
g3
(lp1117
I1
aI496
asg5
(lp1118
I945
aI1263
asg7
(lp1119
I497
aI944
asg9
(lp1120
I1265
aI1600
assV88
p1121
(dp1122
g3
(lp1123
I1
aI123
asg5
(lp1124
I161
aI230
asg7
(lp1125
I125
aI159
asg269
(lp1126
I351
aI489
asg9
(lp1127
I233
aI350
asg305
(lp1128
I535
aI622
asg272
(lp1129
I491
aI534
asg357
(lp1130
I709
aI764
asg308
(lp1131
I623
aI709
assV89
p1132
(dp1133
g3
(lp1134
I1
aI143
asg5
(lp1135
I221
aI280
asg7
(lp1136
I145
aI219
asg269
(lp1137
I421
aI553
asg9
(lp1138
I281
aI420
asg305
(lp1139
I619
aI658
asg272
(lp1140
I555
aI617
asg357
(lp1141
I703
aI759
asg308
(lp1142
I659
aI703
assV397
p1143
(dp1144
g3
(lp1145
I1
aI576
asg5
(lp1146
I1153
aI1712
asg7
(lp1147
I577
aI1152
asg9
(lp1148
I1713
aI2224
assV396
p1149
(dp1150
g3
(lp1151
I1
aI608
asg5
(lp1152
I1217
aI1824
asg7
(lp1153
I609
aI1216
asg9
(lp1154
I1825
aI2432
assV395
p1155
(dp1156
g3
(lp1157
I1
aI592
asg5
(lp1158
I1185
aI1776
asg7
(lp1159
I593
aI1184
asg9
(lp1160
I1777
aI2384
assV394
p1161
(dp1162
g3
(lp1163
I1
aI576
asg5
(lp1164
I1121
aI1712
asg7
(lp1165
I577
aI1120
asg9
(lp1166
I1713
aI2320
assV82
p1167
(dp1168
g3
(lp1169
I1
aI60
asg5
(lp1170
I121
aI232
asg7
(lp1171
I61
aI120
asg269
(lp1172
I291
aI319
asg9
(lp1173
I233
aI289
asg305
(lp1174
I391
aI443
asg272
(lp1175
I321
aI390
asg357
(lp1176
I495
aI545
asg308
(lp1177
I445
aI494
assV83
p1178
(dp1179
g3
(lp1180
I1
aI83
asg5
(lp1181
I111
aI217
asg7
(lp1182
I85
aI109
asg269
(lp1183
I321
aI348
asg9
(lp1184
I219
aI319
asg305
(lp1185
I381
aI425
asg272
(lp1186
I349
aI379
asg357
(lp1187
I481
aI516
asg308
(lp1188
I427
aI480
assV80
p1189
(dp1190
g3
(lp1191
I1
aI93
asg5
(lp1192
I239
aI334
asg7
(lp1193
I95
aI238
asg269
(lp1194
I453
aI561
asg9
(lp1195
I335
aI451
asg305
(lp1196
I627
aI679
asg272
(lp1197
I563
aI626
asg357
(lp1198
I771
aI812
asg308
(lp1199
I681
aI770
assV81
p1200
(dp1201
g3
(lp1202
I1
aI102
asg5
(lp1203
I165
aI239
asg7
(lp1204
I103
aI164
asg269
(lp1205
I353
aI424
asg9
(lp1206
I241
aI351
asg305
(lp1207
I457
aI487
asg272
(lp1208
I425
aI455
asg357
(lp1209
I579
aI605
asg308
(lp1210
I489
aI577
assV86
p1211
(dp1212
g3
(lp1213
I1
aI60
asg5
(lp1214
I85
aI158
asg7
(lp1215
I61
aI84
asg269
(lp1216
I275
aI353
asg9
(lp1217
I159
aI274
asg305
(lp1218
I443
aI553
asg272
(lp1219
I355
aI442
asg357
(lp1220
I645
aI721
asg308
(lp1221
I555
aI645
assV87
p1222
(dp1223
g3
(lp1224
I1
aI110
asg5
(lp1225
I181
aI231
asg7
(lp1226
I111
aI179
asg269
(lp1227
I349
aI468
asg9
(lp1228
I233
aI348
asg305
(lp1229
I505
aI579
asg272
(lp1230
I469
aI503
asg357
(lp1231
I657
aI751
asg308
(lp1232
I581
aI655
assV84
p1233
(dp1234
g3
(lp1235
I1
aI58
asg5
(lp1236
I103
aI193
asg7
(lp1237
I59
aI101
asg269
(lp1238
I307
aI399
asg9
(lp1239
I195
aI305
asg305
(lp1240
I469
aI545
asg272
(lp1241
I401
aI467
asg357
(lp1242
I665
aI776
asg308
(lp1243
I547
aI664
assV85
p1244
(dp1245
g3
(lp1246
I1
aI108
asg5
(lp1247
I195
aI290
asg7
(lp1248
I109
aI194
asg269
(lp1249
I393
aI524
asg9
(lp1250
I291
aI391
asg305
(lp1251
I579
aI669
asg272
(lp1252
I525
aI577
asg357
(lp1253
I897
aI1034
asg308
(lp1254
I671
aI895
assg305
(dp1255
V11
p1256
(lp1257
I181
aI192
asV10
p1258
(lp1259
I165
aI179
asV13
p1260
(lp1261
I241
aI250
asV12
p1262
(lp1263
I193
aI240
asV15
p1264
(lp1265
I267
aI282
asV14
p1266
(lp1267
I251
aI266
asV17
p1268
(lp1269
I299
aI314
asV16
p1270
(lp1271
I283
aI298
asg3
(lp1272
I1
aI16
asg5
(lp1273
I27
aI42
asg7
(lp1274
I17
aI25
asg269
(lp1275
I69
aI80
asg9
(lp1276
I43
aI67
asg305
(lp1277
I89
aI98
asg272
(lp1278
I81
aI88
asg357
(lp1279
I121
aI163
asg308
(lp1280
I99
aI119
assV241
p1281
(dp1282
g3
(lp1283
I1
aI108
asg5
(lp1284
I365
aI623
asg7
(lp1285
I109
aI363
asg9
(lp1286
I625
aI884
assV240
p1287
(dp1288
g3
(lp1289
I1
aI177
asg5
(lp1290
I459
aI740
asg7
(lp1291
I179
aI457
asg9
(lp1292
I741
aI1023
assV243
p1293
(dp1294
g3
(lp1295
I103
aI150
asg7
(lp1296
I151
aI191
assV242
p1297
(dp1298
g3
(lp1299
I1
aI91
asg5
(lp1300
I271
aI511
asg7
(lp1301
I92
aI270
asg9
(lp1302
I512
aI704
assV249
p1303
(dp1304
g3
(lp1305
I1
aI192
asg5
(lp1306
I385
aI576
asg7
(lp1307
I193
aI384
asg9
(lp1308
I577
aI788
assV248
p1309
(dp1310
g3
(lp1311
I1
aI176
asg5
(lp1312
I353
aI592
asg7
(lp1313
I177
aI352
asg9
(lp1314
I593
aI832
assV179
p1315
(dp1316
g3
(lp1317
I1
aI99
asg5
(lp1318
I303
aI539
asg7
(lp1319
I33
aI301
asg9
(lp1320
I541
aI766
assV178
p1321
(dp1322
g3
(lp1323
I1
aI95
asg5
(lp1324
I301
aI511
asg7
(lp1325
I51
aI299
asg9
(lp1326
I513
aI745
assV177
p1327
(dp1328
g3
(lp1329
I1
aI255
asg5
(lp1330
I485
aI733
asg7
(lp1331
I257
aI483
assV176
p1332
(dp1333
g3
(lp1334
I1
aI239
asg5
(lp1335
I465
aI704
asg7
(lp1336
I241
aI463
assV175
p1337
(dp1338
g3
(lp1339
I1
aI224
asg5
(lp1340
I449
aI653
asg7
(lp1341
I225
aI447
assV174
p1342
(dp1343
g3
(lp1344
I1
aI239
asg5
(lp1345
I489
aI723
asg7
(lp1346
I241
aI487
assV173
p1347
(dp1348
g3
(lp1349
I1
aI235
asg5
(lp1350
I489
aI825
asg7
(lp1351
I237
aI487
assV172
p1352
(dp1353
g3
(lp1354
I1
aI256
asg5
(lp1355
I473
aI707
asg7
(lp1356
I257
aI471
assV171
p1357
(dp1358
g3
(lp1359
I1
aI234
asg5
(lp1360
I457
aI724
asg7
(lp1361
I237
aI455
assV170
p1362
(dp1363
g3
(lp1364
I1
aI236
asg5
(lp1365
I441
aI689
asg7
(lp1366
I237
aI440
assV253
p1367
(dp1368
g3
(lp1369
I1
aI192
asg5
(lp1370
I369
aI560
asg7
(lp1371
I193
aI368
asg9
(lp1372
I561
aI752
assV182
p1373
(dp1374
g3
(lp1375
I1
aI102
asg5
(lp1376
I315
aI606
asg7
(lp1377
I103
aI314
asg9
(lp1378
I607
aI799
assV183
p1379
(dp1380
g3
(lp1381
I1
aI100
asg5
(lp1382
I277
aI538
asg7
(lp1383
I55
aI274
asg9
(lp1384
I539
aI820
assV180
p1385
(dp1386
g3
(lp1387
I1
aI100
asg5
(lp1388
I281
aI490
asg7
(lp1389
I37
aI279
asg9
(lp1390
I491
aI754
assV181
p1391
(dp1392
g3
(lp1393
I1
aI99
asg5
(lp1394
I365
aI610
asg7
(lp1395
I59
aI363
asg9
(lp1396
I611
aI800
assV186
p1397
(dp1398
g3
(lp1399
I1
aI126
asg5
(lp1400
I391
aI655
asg7
(lp1401
I127
aI389
asg9
(lp1402
I657
aI912
assV187
p1403
(dp1404
g3
(lp1405
I1
aI107
asg5
(lp1406
I357
aI659
asg7
(lp1407
I109
aI356
asg9
(lp1408
I661
aI913
assV184
p1409
(dp1410
g3
(lp1411
I1
aI143
asg5
(lp1412
I377
aI660
asg7
(lp1413
I145
aI376
asg9
(lp1414
I661
aI902
assV185
p1415
(dp1416
g3
(lp1417
I1
aI163
asg5
(lp1418
I451
aI660
asg7
(lp1419
I165
aI449
asg9
(lp1420
I661
aI928
assV188
p1421
(dp1422
g3
(lp1423
I1
aI190
asg5
(lp1424
I429
aI689
asg7
(lp1425
I191
aI427
asg9
(lp1426
I691
aI909
assV189
p1427
(dp1428
g3
(lp1429
I1
aI136
asg5
(lp1430
I397
aI626
asg7
(lp1431
I137
aI396
asg9
(lp1432
I627
aI909
assV11
p1433
(dp1434
g3
(lp1435
I1
aI16
asg5
(lp1436
I49
aI66
asg7
(lp1437
I17
aI48
asg269
(lp1438
I123
aI137
asg9
(lp1439
I67
aI121
asg305
(lp1440
I149
aI168
asg272
(lp1441
I139
aI148
asg357
(lp1442
I201
aI248
asg308
(lp1443
I169
aI200
assV10
p1444
(dp1445
g3
(lp1446
I1
aI24
asg5
(lp1447
I41
aI71
asg7
(lp1448
I25
aI40
asg269
(lp1449
I111
aI126
asg9
(lp1450
I73
aI110
asg305
(lp1451
I143
aI158
asg272
(lp1452
I127
aI142
asg308
(lp1453
I159
aI194
assV13
p1454
(dp1455
g3
(lp1456
I1
aI30
asg5
(lp1457
I61
aI86
asg7
(lp1458
I33
aI60
asg269
(lp1459
I147
aI174
asg9
(lp1460
I87
aI146
asg305
(lp1461
I207
aI238
asg272
(lp1462
I175
aI206
asg357
(lp1463
I271
aI282
asg308
(lp1464
I239
aI270
assV12
p1465
(dp1466
g3
(lp1467
I1
aI20
asg5
(lp1468
I41
aI72
asg7
(lp1469
I21
aI40
asg269
(lp1470
I125
aI156
asg9
(lp1471
I73
aI123
asg305
(lp1472
I189
aI189
asg272
(lp1473
I157
aI188
asg357
(lp1474
I213
aI220
asg308
(lp1475
I189
aI212
assV15
p1476
(dp1477
g3
(lp1478
I1
aI39
asg5
(lp1479
I73
aI96
asg7
(lp1480
I41
aI71
asg269
(lp1481
I153
aI171
asg9
(lp1482
I101
aI151
asg305
(lp1483
I189
aI204
asg272
(lp1484
I173
aI188
asg357
(lp1485
I225
aI232
asg308
(lp1486
I205
aI224
assV14
p1487
(dp1488
g3
(lp1489
I1
aI32
asg5
(lp1490
I65
aI96
asg7
(lp1491
I33
aI64
asg269
(lp1492
I149
aI172
asg9
(lp1493
I97
aI147
asg305
(lp1494
I193
aI211
asg272
(lp1495
I173
aI192
asg357
(lp1496
I241
aI254
asg308
(lp1497
I213
aI240
assV17
p1498
(dp1499
g3
(lp1500
I1
aI19
asg5
(lp1501
I51
aI85
asg7
(lp1502
I21
aI49
asg269
(lp1503
I135
aI163
asg9
(lp1504
I87
aI134
asg305
(lp1505
I197
aI222
asg272
(lp1506
I165
aI195
asg357
(lp1507
I255
aI271
asg308
(lp1508
I223
aI253
assV16
p1509
(dp1510
g3
(lp1511
I1
aI24
asg5
(lp1512
I49
aI72
asg7
(lp1513
I25
aI47
asg269
(lp1514
I117
aI138
asg9
(lp1515
I73
aI116
asg305
(lp1516
I167
aI189
asg272
(lp1517
I139
aI165
asg357
(lp1518
I215
aI224
asg308
(lp1519
I191
aI213
assV19
p1520
(dp1521
V10
p1522
(lp1523
I337
aI359
asg3
(lp1524
I1
aI43
asg5
(lp1525
I77
aI103
asg7
(lp1526
I45
aI75
asg269
(lp1527
I169
aI200
asg9
(lp1528
I105
aI168
asg305
(lp1529
I233
aI263
asg272
(lp1530
I201
aI231
asg357
(lp1531
I305
aI336
asg308
(lp1532
I265
aI304
assV18
p1533
(dp1534
g3
(lp1535
I1
aI460
asg5
(lp1536
I57
aI84
asg7
(lp1537
I29
aI56
asg269
(lp1538
I133
aI163
asg9
(lp1539
I85
aI131
asg305
(lp1540
I229
aI260
asg272
(lp1541
I165
aI227
asg357
(lp1542
I301
aI327
asg308
(lp1543
I261
aI299
assV62
p1544
(dp1545
g3
(lp1546
I1
aI119
asg5
(lp1547
I179
aI216
asg7
(lp1548
I121
aI177
asg269
(lp1549
I345
aI432
asg9
(lp1550
I219
aI344
asg305
(lp1551
I493
aI533
asg357
(lp1552
I617
aI703
asg308
(lp1553
I535
aI616
assV322
p1554
(dp1555
g3
(lp1556
I1
aI208
asg5
(lp1557
I433
aI688
asg7
(lp1558
I17
aI432
asg9
(lp1559
I29
aI944
assV323
p1560
(dp1561
g3
(lp1562
I1
aI256
asg5
(lp1563
I529
aI784
asg7
(lp1564
I17
aI528
asg9
(lp1565
I785
aI1040
assV320
p1566
(dp1567
g3
(lp1568
I1
aI176
asg5
(lp1569
I21
aI400
asg7
(lp1570
I177
aI288
asg9
(lp1571
I49
aI528
assV321
p1572
(dp1573
g5
(lp1574
I385
aI592
asg7
(lp1575
I29
aI384
asg9
(lp1576
I593
aI784
assV326
p1577
(dp1578
g3
(lp1579
I1
aI416
asg5
(lp1580
I37
aI1216
asg7
(lp1581
I13
aI832
asg9
(lp1582
I45
aI1600
assV327
p1583
(dp1584
g3
(lp1585
I1
aI352
asg5
(lp1586
I689
aI1040
asg7
(lp1587
I21
aI688
asg9
(lp1588
I37
aI1376
assV324
p1589
(dp1590
g3
(lp1591
I1
aI272
asg5
(lp1592
I529
aI784
asg7
(lp1593
I273
aI528
asg9
(lp1594
I29
aI1168
assV325
p1595
(dp1596
g3
(lp1597
I1
aI448
asg5
(lp1598
I897
aI1280
asg7
(lp1599
I1
aI896
asg9
(lp1600
I13
aI1648
assV328
p1601
(dp1602
g5
(lp1603
I27
aI992
asg7
(lp1604
I11
aI688
asg9
(lp1605
I993
aI1200
assV329
p1606
(dp1607
g3
(lp1608
I1
aI256
asg5
(lp1609
I481
aI688
asg7
(lp1610
I29
aI480
asg9
(lp1611
I57
aI928
assV201
p1612
(dp1613
g3
(lp1614
I1
aI178
asg5
(lp1615
I487
aI832
asg7
(lp1616
I179
aI485
asg9
(lp1617
I833
aI1199
assV200
p1618
(dp1619
g3
(lp1620
I1
aI137
asg5
(lp1621
I463
aI868
asg7
(lp1622
I139
aI462
asg9
(lp1623
I869
aI1173
assV203
p1624
(dp1625
g3
(lp1626
I1
aI222
asg5
(lp1627
I581
aI915
asg7
(lp1628
I223
aI579
asg9
(lp1629
I917
aI1280
assV202
p1630
(dp1631
g3
(lp1632
I1
aI248
asg5
(lp1633
I587
aI949
asg7
(lp1634
I249
aI585
asg9
(lp1635
I951
aI1247
assV205
p1636
(dp1637
g3
(lp1638
I1
aI239
asg5
(lp1639
I571
aI905
asg7
(lp1640
I241
aI570
asg9
(lp1641
I907
aI1327
assV204
p1642
(dp1643
g3
(lp1644
I1
aI236
asg5
(lp1645
I655
aI973
asg7
(lp1646
I237
aI654
asg9
(lp1647
I975
aI1295
assV207
p1648
(dp1649
g3
(lp1650
I1
aI138
asg5
(lp1651
I393
aI657
asg7
(lp1652
I139
aI392
asg9
(lp1653
I659
aI927
assV206
p1654
(dp1655
g3
(lp1656
I1
aI237
asg5
(lp1657
I433
aI701
asg7
(lp1658
I239
aI432
asg9
(lp1659
I705
aI928
assV209
p1660
(dp1661
g3
(lp1662
I1
aI137
asg5
(lp1663
I387
aI681
asg7
(lp1664
I139
aI385
asg9
(lp1665
I683
aI960
assV208
p1666
(dp1667
g3
(lp1668
I1
aI184
asg5
(lp1669
I435
aI678
asg7
(lp1670
I185
aI433
asg9
(lp1671
I679
aI959
assV77
p1672
(dp1673
g3
(lp1674
I1
aI81
asg5
(lp1675
I185
aI280
asg7
(lp1676
I83
aI184
asg269
(lp1677
I413
aI481
asg9
(lp1678
I281
aI411
asg305
(lp1679
I527
aI578
asg272
(lp1680
I483
aI525
asg357
(lp1681
I633
aI663
asg308
(lp1682
I579
aI632
assV76
p1683
(dp1684
g3
(lp1685
I1
aI68
asg5
(lp1686
I195
aI247
asg7
(lp1687
I69
aI193
asg269
(lp1688
I377
aI446
asg9
(lp1689
I250
aI376
asg305
(lp1690
I551
aI637
asg272
(lp1691
I447
aI549
asg357
(lp1692
I699
aI743
asg308
(lp1693
I639
aI697
assV75
p1694
(dp1695
g3
(lp1696
I1
aI38
asg5
(lp1697
I103
aI219
asg7
(lp1698
I39
aI102
asg269
(lp1699
I365
aI456
asg9
(lp1700
I221
aI363
asg305
(lp1701
I505
aI589
asg272
(lp1702
I457
aI504
asg357
(lp1703
I681
aI717
asg308
(lp1704
I591
aI679
assV74
p1705
(dp1706
g3
(lp1707
I1
aI59
asg5
(lp1708
I155
aI256
asg7
(lp1709
I61
aI154
asg269
(lp1710
I391
aI484
asg9
(lp1711
I257
aI390
asg305
(lp1712
I551
aI656
asg272
(lp1713
I485
aI549
asg357
(lp1714
I733
aI744
asg308
(lp1715
I657
aI731
assV73
p1716
(dp1717
g3
(lp1718
I1
aI60
asg5
(lp1719
I137
aI191
asg7
(lp1720
I61
aI136
asg269
(lp1721
I333
aI400
asg9
(lp1722
I193
aI331
asg305
(lp1723
I485
aI552
asg272
(lp1724
I401
aI484
asg357
(lp1725
I673
aI744
asg308
(lp1726
I553
aI672
assV72
p1727
(dp1728
g3
(lp1729
I1
aI88
asg5
(lp1730
I169
aI215
asg7
(lp1731
I89
aI167
asg269
(lp1732
I367
aI451
asg9
(lp1733
I217
aI366
asg305
(lp1734
I535
aI639
asg272
(lp1735
I453
aI534
asg357
(lp1736
I729
aI756
asg308
(lp1737
I641
aI728
assV71
p1738
(dp1739
g3
(lp1740
I1
aI103
asg5
(lp1741
I163
aI238
asg7
(lp1742
I105
aI161
asg269
(lp1743
I387
aI490
asg9
(lp1744
I239
aI386
asg272
(lp1745
I491
aI524
asg357
(lp1746
I717
aI750
asg308
(lp1747
I605
aI716
assV70
p1748
(dp1749
g3
(lp1750
I1
aI105
asg5
(lp1751
I203
aI275
asg7
(lp1752
I107
aI202
asg269
(lp1753
I415
aI481
asg9
(lp1754
I277
aI414
asg305
(lp1755
I523
aI565
asg272
(lp1756
I483
aI521
asg357
(lp1757
I647
aI672
asg308
(lp1758
I567
aI645
assV79
p1759
(dp1760
g3
(lp1761
I1
aI98
asg5
(lp1762
I161
aI218
asg7
(lp1763
I99
aI160
asg269
(lp1764
I317
aI405
asg9
(lp1765
I219
aI315
asg305
(lp1766
I467
aI539
asg272
(lp1767
I407
aI466
asg357
(lp1768
I605
aI658
asg308
(lp1769
I541
aI604
assV78
p1770
(dp1771
g3
(lp1772
I1
aI90
asg5
(lp1773
I179
aI230
asg7
(lp1774
I91
aI178
asg269
(lp1775
I343
aI403
asg9
(lp1776
I231
aI341
asg305
(lp1777
I451
aI541
asg272
(lp1778
I405
aI449
asg357
(lp1779
I665
aI692
asg308
(lp1780
I543
aI663
assg7
(dp1781
V11
p1782
(lp1783
I77
aI90
asV10
p1784
(lp1785
I61
aI76
asV13
p1786
(lp1787
I103
aI108
asV12
p1788
(lp1789
I91
aI101
asV15
p1790
(lp1791
I117
aI128
asV14
p1792
(lp1793
I111
aI115
asV17
p1794
(lp1795
I137
aI142
asV16
p1796
(lp1797
I129
aI135
asV19
p1798
(lp1799
I167
aI170
asV18
p1800
(lp1801
I143
aI166
asV20
p1802
(lp1803
I171
aI181
asg3
(lp1804
I1
aI7
asg5
(lp1805
I25
aI27
asg7
(lp1806
I9
aI24
asg269
(lp1807
I33
aI36
asg9
(lp1808
I29
aI31
asg305
(lp1809
I43
aI45
asg272
(lp1810
I37
aI42
asg357
(lp1811
I51
aI59
asg308
(lp1812
I47
aI49
asV21
p1813
(lp1814
I183
aI196
assg308
(dp1815
g3
(lp1816
I1
aI16
asg5
(lp1817
I33
aI55
asg7
(lp1818
I17
aI32
asg269
(lp1819
I125
aI139
asg9
(lp1820
I57
aI123
asg272
(lp1821
I141
aI162
asg357
(lp1822
I195
aI222
asg308
(lp1823
I163
aI192
assV68
p1824
(dp1825
g3
(lp1826
I1
aI80
asg5
(lp1827
I147
aI217
asg7
(lp1828
I81
aI145
asg269
(lp1829
I333
aI448
asg9
(lp1830
I219
aI331
asg305
(lp1831
I495
aI536
asg272
(lp1832
I449
aI494
asg357
(lp1833
I629
aI677
asg308
(lp1834
I537
aI628
assV120
p1835
(dp1836
g3
(lp1837
I1
aI88
asg5
(lp1838
I193
aI285
asg7
(lp1839
I89
aI192
asg269
(lp1840
I387
aI503
asg9
(lp1841
I287
aI386
asg272
(lp1842
I505
aI588
assV121
p1843
(dp1844
g3
(lp1845
I1
aI122
asg5
(lp1846
I253
aI336
asg7
(lp1847
I123
aI252
asg269
(lp1848
I421
aI502
asg9
(lp1849
I337
aI419
asg272
(lp1850
I503
aI578
assV122
p1851
(dp1852
g3
(lp1853
I1
aI111
asg5
(lp1854
I181
aI278
asg7
(lp1855
I113
aI180
asg269
(lp1856
I371
aI459
asg9
(lp1857
I279
aI370
asg272
(lp1858
I461
aI541
assV123
p1859
(dp1860
g3
(lp1861
I1
aI86
asg5
(lp1862
I191
aI285
asg7
(lp1863
I87
aI189
asg269
(lp1864
I391
aI485
asg9
(lp1865
I287
aI390
asg272
(lp1866
I487
aI561
assV124
p1867
(dp1868
g3
(lp1869
I1
aI93
asg5
(lp1870
I189
aI278
asg7
(lp1871
I95
aI188
asg269
(lp1872
I371
aI444
asg9
(lp1873
I279
aI369
asg272
(lp1874
I459
aI546
assV125
p1875
(dp1876
g3
(lp1877
I1
aI92
asg5
(lp1878
I199
aI306
asg7
(lp1879
I93
aI198
asg269
(lp1880
I367
aI485
asg9
(lp1881
I307
aI365
asg272
(lp1882
I487
aI570
assV126
p1883
(dp1884
g3
(lp1885
I1
aI120
asg5
(lp1886
I209
aI298
asg7
(lp1887
I121
aI208
asg269
(lp1888
I405
aI487
asg9
(lp1889
I299
aI404
asg272
(lp1890
I489
aI577
assV127
p1891
(dp1892
g3
(lp1893
I1
aI95
asg5
(lp1894
I195
aI272
asg7
(lp1895
I105
aI194
asg269
(lp1896
I341
aI459
asg9
(lp1897
I273
aI340
asg272
(lp1898
I461
aI532
assV128
p1899
(dp1900
g3
(lp1901
I1
aI102
asg5
(lp1902
I187
aI259
asg7
(lp1903
I103
aI186
asg269
(lp1904
I365
aI434
asg9
(lp1905
I261
aI364
asg272
(lp1906
I435
aI512
assV129
p1907
(dp1908
g3
(lp1909
I1
aI104
asg5
(lp1910
I237
aI297
asg7
(lp1911
I105
aI236
asg269
(lp1912
I345
aI393
asg9
(lp1913
I299
aI343
asg272
(lp1914
I395
aI452
assV414
p1915
(dp1916
g3
(lp1917
I1
aI800
asg5
(lp1918
I1793
aI2784
asg7
(lp1919
I801
aI1792
asg9
(lp1920
I2785
aI3776
assV415
p1921
(dp1922
g3
(lp1923
I1
aI992
asg5
(lp1924
I1985
aI2976
asg7
(lp1925
I993
aI1984
asg9
(lp1926
I2977
aI3968
assV416
p1927
(dp1928
g3
(lp1929
I1
aI800
asg5
(lp1930
I1601
aI2400
asg7
(lp1931
I801
aI1600
asg9
(lp1932
I2401
aI3200
assV417
p1933
(dp1934
g3
(lp1935
I1
aI800
asg5
(lp1936
I1601
aI2400
asg7
(lp1937
I801
aI1600
asg9
(lp1938
I2401
aI3104
assV410
p1939
(dp1940
g3
(lp1941
I1
aI704
asg5
(lp1942
I1409
aI2112
asg7
(lp1943
I705
aI1408
asg9
(lp1944
I2113
aI2816
assV411
p1945
(dp1946
g3
(lp1947
I1
aI704
asg5
(lp1948
I1409
aI2112
asg7
(lp1949
I705
aI1408
asg9
(lp1950
I2113
aI2816
assV412
p1951
(dp1952
g3
(lp1953
I1
aI704
asg5
(lp1954
I1409
aI2112
asg7
(lp1955
I705
aI1408
asg9
(lp1956
I2113
aI2816
assV413
p1957
(dp1958
g3
(lp1959
I1
aI704
asg5
(lp1960
I1505
aI2304
asg7
(lp1961
I705
aI1504
asg9
(lp1962
I2305
aI3104
assV418
p1963
(dp1964
g3
(lp1965
I1
aI704
asg5
(lp1966
I1409
aI2112
asg7
(lp1967
I705
aI1408
asg9
(lp1968
I2113
aI2816
assV419
p1969
(dp1970
g3
(lp1971
I1
aI912
asg5
(lp1972
I1825
aI2736
asg7
(lp1973
I913
aI1824
asg9
(lp1974
I2737
aI3648
assV319
p1975
(dp1976
g3
(lp1977
I1
aI336
asg5
(lp1978
I657
aI976
asg7
(lp1979
I1
aI656
asg9
(lp1980
I977
aI1184
assV318
p1981
(dp1982
g3
(lp1983
I1
aI320
asg5
(lp1984
I21
aI960
asg7
(lp1985
I321
aI640
asg9
(lp1986
I45
aI1280
assV313
p1987
(dp1988
g3
(lp1989
I1
aI208
asg5
(lp1990
I433
aI640
asg7
(lp1991
I17
aI432
asg9
(lp1992
I33
aI880
assV312
p1993
(dp1994
g3
(lp1995
I1
aI224
asg5
(lp1996
I29
aI688
asg7
(lp1997
I9
aI464
asg9
(lp1998
I49
aI896
assV311
p1999
(dp2000
g3
(lp2001
I1
aI224
asg5
(lp2002
I1
aI656
asg7
(lp2003
I225
aI448
asg9
(lp2004
I657
aI880
assV310
p2005
(dp2006
g3
(lp2007
I1
aI288
asg5
(lp2008
I577
aI912
asg7
(lp2009
I21
aI576
asg9
(lp2010
I913
aI1184
assV317
p2011
(dp2012
g3
(lp2013
I1
aI224
asg5
(lp2014
I41
aI736
asg7
(lp2015
I29
aI496
asg9
(lp2016
I737
aI1040
assV316
p2017
(dp2018
g3
(lp2019
I1
aI224
asg7
(lp2020
I17
aI448
asg9
(lp2021
I45
aI960
assV315
p2022
(dp2023
g3
(lp2024
I1
aI208
asg5
(lp2025
I29
aI656
asg7
(lp2026
I13
aI432
asg9
(lp2027
I45
aI864
assV314
p2028
(dp2029
g3
(lp2030
I1
aI208
asg5
(lp2031
I433
aI656
asg7
(lp2032
I209
aI432
asg9
(lp2033
I17
aI864
assg5
(dp2034
V24
p2035
(lp2036
I197
aI202
asV20
p2037
(lp2038
I145
aI175
asV21
p2039
(lp2040
I177
aI185
asV22
p2041
(lp2042
I187
aI191
asV23
p2043
(lp2044
I193
aI195
asg3
(lp2045
I1
aI11
asg5
(lp2046
I17
aI20
asg7
(lp2047
I13
aI16
asg269
(lp2048
I35
aI38
asg9
(lp2049
I21
aI33
asg305
(lp2050
I47
aI52
asg272
(lp2051
I39
aI46
asg357
(lp2052
I63
aI66
asg308
(lp2053
I53
aI62
asV11
p2054
(lp2055
I73
aI79
asV10
p2056
(lp2057
I67
aI72
asV13
p2058
(lp2059
I99
aI104
asV12
p2060
(lp2061
I81
aI98
asV15
p2062
(lp2063
I111
aI115
asV14
p2064
(lp2065
I105
aI110
asV17
p2066
(lp2067
I127
aI136
asV16
p2068
(lp2069
I117
aI125
asV19
p2070
(lp2071
I141
aI144
asV18
p2072
(lp2073
I137
aI140
assV368
p2074
(dp2075
g3
(lp2076
I1
aI496
asg5
(lp2077
I993
aI1488
asg7
(lp2078
I497
aI992
asg9
(lp2079
I1489
aI1984
assV369
p2080
(dp2081
g3
(lp2082
I1
aI496
asg5
(lp2083
I1009
aI1536
asg7
(lp2084
I497
aI1008
asg9
(lp2085
I1537
aI2064
assV366
p2086
(dp2087
g3
(lp2088
I1
aI352
asg5
(lp2089
I705
aI1120
asg7
(lp2090
I353
aI704
asg9
(lp2091
I1121
aI1552
assV367
p2092
(dp2093
g3
(lp2094
I1
aI432
asg5
(lp2095
I865
aI1328
asg7
(lp2096
I433
aI864
asg9
(lp2097
I1329
aI1808
assV364
p2098
(dp2099
g3
(lp2100
I1
aI352
asg5
(lp2101
I753
aI1104
asg7
(lp2102
I353
aI752
asg9
(lp2103
I1105
aI1488
assV365
p2104
(dp2105
g3
(lp2106
I1
aI352
asg5
(lp2107
I705
aI1056
asg7
(lp2108
I353
aI704
asg9
(lp2109
I1057
aI1408
assV362
p2110
(dp2111
g3
(lp2112
I1
aI368
asg5
(lp2113
I753
aI1120
asg7
(lp2114
I369
aI752
asg9
(lp2115
I1121
aI1488
assV363
p2116
(dp2117
g3
(lp2118
I1
aI352
asg5
(lp2119
I705
aI1056
asg7
(lp2120
I353
aI704
asg9
(lp2121
I1057
aI1424
assV360
p2122
(dp2123
g3
(lp2124
I1
aI400
asg5
(lp2125
I801
aI1184
asg7
(lp2126
I401
aI800
asg9
(lp2127
I1185
aI1552
assV361
p2128
(dp2129
g3
(lp2130
I1
aI368
asg5
(lp2131
I753
aI1120
asg7
(lp2132
I369
aI752
asg9
(lp2133
I1121
aI1424
assV380
p2134
(dp2135
g3
(lp2136
I1
aI416
asg5
(lp2137
I865
aI1296
asg7
(lp2138
I417
aI864
asg9
(lp2139
I1297
aI1760
assV381
p2140
(dp2141
g3
(lp2142
I1
aI432
asg5
(lp2143
I881
aI1312
asg7
(lp2144
I433
aI880
asg9
(lp2145
I1313
aI1744
assV382
p2146
(dp2147
g3
(lp2148
I1
aI480
asg5
(lp2149
I945
aI1376
asg7
(lp2150
I481
aI944
asg9
(lp2151
I1377
aI1984
assV383
p2152
(dp2153
g3
(lp2154
I1
aI416
asg5
(lp2155
I817
aI1280
asg7
(lp2156
I417
aI816
asg9
(lp2157
I1281
aI1712
assV384
p2158
(dp2159
g3
(lp2160
I1
aI448
asg5
(lp2161
I849
aI1248
asg7
(lp2162
I449
aI848
asg9
(lp2163
I1249
aI1744
assV385
p2164
(dp2165
g3
(lp2166
I1
aI544
asg5
(lp2167
I1105
aI1680
asg7
(lp2168
I545
aI1104
asg9
(lp2169
I1681
aI2288
assV386
p2170
(dp2171
g3
(lp2172
I1
aI576
asg5
(lp2173
I1169
aI1760
asg7
(lp2174
I577
aI1168
asg9
(lp2175
I1761
aI2352
assV387
p2176
(dp2177
g3
(lp2178
I1
aI480
asg5
(lp2179
I945
aI1344
asg7
(lp2180
I481
aI944
asg9
(lp2181
I1345
aI1760
assV388
p2182
(dp2183
g3
(lp2184
I1
aI464
asg5
(lp2185
I945
aI1456
asg7
(lp2186
I465
aI944
asg9
(lp2187
I1457
aI1904
assV389
p2188
(dp2189
g3
(lp2190
I1
aI496
asg5
(lp2191
I1009
aI1488
asg7
(lp2192
I497
aI1008
asg9
(lp2193
I1489
aI1936
assV60
p2194
(dp2195
V10
p2196
(lp2197
I599
aI623
asg3
(lp2198
I1
aI80
asg5
(lp2199
I173
aI243
asg7
(lp2200
I81
aI172
asg269
(lp2201
I295
aI416
asg9
(lp2202
I245
aI293
asg305
(lp2203
I449
aI528
asg272
(lp2204
I417
aI448
asg357
(lp2205
I571
aI598
asg308
(lp2206
I529
aI570
assV61
p2207
(dp2208
g3
(lp2209
I1
aI65
asg5
(lp2210
I121
aI164
asg7
(lp2211
I67
aI119
asg269
(lp2212
I307
aI384
asg9
(lp2213
I165
aI306
asg305
(lp2214
I421
aI506
asg272
(lp2215
I385
aI420
asg357
(lp2216
I575
aI636
asg308
(lp2217
I507
aI574
assV258
p2218
(dp2219
g3
(lp2220
I1
aI240
asg5
(lp2221
I449
aI656
asg7
(lp2222
I241
aI448
asg9
(lp2223
I657
aI848
assV259
p2224
(dp2225
g3
(lp2226
I1
aI208
asg5
(lp2227
I401
aI592
asg7
(lp2228
I209
aI400
asg9
(lp2229
I593
aI768
assV64
p2230
(dp2231
g3
(lp2232
I1
aI82
asg5
(lp2233
I155
aI252
asg7
(lp2234
I83
aI154
asg269
(lp2235
I403
aI522
asg9
(lp2236
I253
aI402
asg305
(lp2237
I563
aI681
asg272
(lp2238
I523
aI561
asg357
(lp2239
I813
aI843
asg308
(lp2240
I683
aI812
assV65
p2241
(dp2242
g3
(lp2243
I1
aI101
asg5
(lp2244
I185
aI319
asg7
(lp2245
I103
aI183
asg269
(lp2246
I427
aI536
asg9
(lp2247
I321
aI426
asg305
(lp2248
I657
aI718
asg272
(lp2249
I537
aI655
asg357
(lp2250
I857
aI872
asg308
(lp2251
I719
aI856
assV66
p2252
(dp2253
g3
(lp2254
I1
aI32
asg5
(lp2255
I75
aI147
asg7
(lp2256
I33
aI74
asg269
(lp2257
I263
aI349
asg9
(lp2258
I149
aI262
asg305
(lp2259
I403
aI468
asg272
(lp2260
I351
aI402
asg357
(lp2261
I523
aI548
asg308
(lp2262
I469
aI521
assV67
p2263
(dp2264
g3
(lp2265
I1
aI105
asg5
(lp2266
I173
aI213
asg7
(lp2267
I107
aI172
asg269
(lp2268
I315
aI364
asg9
(lp2269
I215
aI314
asg305
(lp2270
I425
aI496
asg272
(lp2271
I365
aI424
asg357
(lp2272
I551
aI577
asg308
(lp2273
I497
aI550
assV252
p2274
(dp2275
g3
(lp2276
I1
aI176
asg5
(lp2277
I313
aI472
asg7
(lp2278
I177
aI312
asg9
(lp2279
I473
aI636
assV69
p2280
(dp2281
g3
(lp2282
I1
aI97
asg5
(lp2283
I163
aI228
asg7
(lp2284
I99
aI162
asg269
(lp2285
I347
aI470
asg9
(lp2286
I229
aI345
asg305
(lp2287
I543
aI614
asg272
(lp2288
I471
aI542
asg357
(lp2289
I653
aI678
asg308
(lp2290
I615
aI651
assV250
p2291
(dp2292
g3
(lp2293
I1
aI240
asg5
(lp2294
I481
aI656
asg7
(lp2295
I241
aI480
asg9
(lp2296
I657
aI830
assV251
p2297
(dp2298
g3
(lp2299
I1
aI192
asg5
(lp2300
I369
aI544
asg7
(lp2301
I193
aI368
asg9
(lp2302
I545
aI718
assV256
p2303
(dp2304
g3
(lp2305
I1
aI176
asg5
(lp2306
I369
aI544
asg7
(lp2307
I177
aI368
asg9
(lp2308
I545
aI736
assV257
p2309
(dp2310
g3
(lp2311
I1
aI176
asg5
(lp2312
I369
aI544
asg7
(lp2313
I180
aI368
asg9
(lp2314
I545
aI736
assV254
p2315
(dp2316
g3
(lp2317
I1
aI176
asg5
(lp2318
I369
aI544
asg7
(lp2319
I177
aI368
asg9
(lp2320
I546
aI737
assV255
p2321
(dp2322
g3
(lp2323
I1
aI176
asg5
(lp2324
I369
aI544
asg7
(lp2325
I177
aI368
asg9
(lp2326
I545
aI736
assV168
p2327
(dp2328
g3
(lp2329
I1
aI247
asg5
(lp2330
I451
aI650
asg7
(lp2331
I249
aI449
assV169
p2332
(dp2333
g3
(lp2334
I1
aI197
asg5
(lp2335
I395
aI680
asg7
(lp2336
I199
aI393
assV164
p2337
(dp2338
g3
(lp2339
I1
aI99
asg5
(lp2340
I197
aI319
asg7
(lp2341
I101
aI196
asg9
(lp2342
I321
aI424
assV165
p2343
(dp2344
g3
(lp2345
I1
aI120
asg5
(lp2346
I245
aI336
asg7
(lp2347
I121
aI244
asg9
(lp2348
I337
aI431
assV166
p2349
(dp2350
g3
(lp2351
I1
aI233
asg5
(lp2352
I499
aI711
asg7
(lp2353
I235
aI497
assV167
p2354
(dp2355
g3
(lp2356
I1
aI236
asg5
(lp2357
I437
aI663
asg7
(lp2358
I237
aI435
assV160
p2359
(dp2360
g3
(lp2361
I1
aI127
asg5
(lp2362
I233
aI348
asg7
(lp2363
I129
aI232
asg9
(lp2364
I349
aI440
assV161
p2365
(dp2366
g3
(lp2367
I1
aI111
asg5
(lp2368
I213
aI363
asg7
(lp2369
I113
aI211
asg9
(lp2370
I365
aI465
assV162
p2371
(dp2372
g3
(lp2373
I1
aI96
asg5
(lp2374
I189
aI293
asg7
(lp2375
I97
aI187
asg9
(lp2376
I295
aI401
assV163
p2377
(dp2378
g3
(lp2379
I1
aI139
asg5
(lp2380
I245
aI344
asg7
(lp2381
I141
aI243
asg9
(lp2382
I345
aI437
assg357
(dp2383
g3
(lp2384
I1
aI19
asg5
(lp2385
I39
aI52
asg7
(lp2386
I21
aI38
asg269
(lp2387
I95
aI126
asg9
(lp2388
I53
aI93
asg305
(lp2389
I151
aI174
asg272
(lp2390
I127
aI149
asg357
(lp2391
I219
aI226
asg308
(lp2392
I175
aI218
assV357
p2393
(dp2394
g3
(lp2395
I1
aI400
asg5
(lp2396
I801
aI1104
asg7
(lp2397
I401
aI800
asg9
(lp2398
I1105
aI1408
assV356
p2399
(dp2400
g3
(lp2401
I1
aI400
asg5
(lp2402
I801
aI1200
asg7
(lp2403
I401
aI800
asg9
(lp2404
I1201
aI1600
assV355
p2405
(dp2406
g3
(lp2407
I1
aI320
asg5
(lp2408
I9
aI1040
asg7
(lp2409
I321
aI640
asg9
(lp2410
I29
aI1408
assV354
p2411
(dp2412
g3
(lp2413
I1
aI320
asg5
(lp2414
I37
aI960
asg7
(lp2415
I13
aI640
asg9
(lp2416
I49
aI1280
assV353
p2417
(dp2418
g3
(lp2419
I1
aI352
asg5
(lp2420
I23
aI1024
asg7
(lp2421
I17
aI704
asg9
(lp2422
I35
aI1344
assV352
p2423
(dp2424
g3
(lp2425
I1
aI352
asg5
(lp2426
I21
aI1088
asg7
(lp2427
I1
aI720
asg9
(lp2428
I41
aI1472
assV351
p2429
(dp2430
g3
(lp2431
I1
aI384
asg5
(lp2432
I49
aI1120
asg7
(lp2433
I29
aI768
asg9
(lp2434
I89
aI1472
assV350
p2435
(dp2436
g3
(lp2437
I1
aI384
asg5
(lp2438
I37
aI1152
asg7
(lp2439
I21
aI768
asg9
(lp2440
I61
aI1536
assV359
p2441
(dp2442
g3
(lp2443
I1
aI400
asg5
(lp2444
I801
aI1200
asg7
(lp2445
I401
aI800
asg9
(lp2446
I1201
aI1600
assV358
p2447
(dp2448
g3
(lp2449
I1
aI304
asg5
(lp2450
I705
aI1104
asg7
(lp2451
I305
aI704
asg9
(lp2452
I1105
aI1504
assV216
p2453
(dp2454
g3
(lp2455
I1
aI137
asg5
(lp2456
I503
aI760
asg7
(lp2457
I139
aI502
asg9
(lp2458
I761
aI1071
assV217
p2459
(dp2460
g3
(lp2461
I1
aI215
asg5
(lp2462
I443
aI668
asg7
(lp2463
I217
aI442
asg9
(lp2464
I669
aI893
assV214
p2465
(dp2466
g3
(lp2467
I1
aI65
asg5
(lp2468
I241
aI418
asg7
(lp2469
I67
aI240
asg9
(lp2470
I419
aI639
assV215
p2471
(dp2472
g3
(lp2473
I1
aI87
asg5
(lp2474
I295
aI536
asg7
(lp2475
I77
aI294
asg9
(lp2476
I537
aI831
assV212
p2477
(dp2478
g3
(lp2479
I1
aI243
asg5
(lp2480
I497
aI749
asg7
(lp2481
I245
aI496
asg9
(lp2482
I751
aI988
assV213
p2483
(dp2484
g3
(lp2485
I1
aI109
asg5
(lp2486
I407
aI720
asg7
(lp2487
I111
aI405
asg9
(lp2488
I721
aI991
assV210
p2489
(dp2490
g3
(lp2491
I1
aI187
asg5
(lp2492
I489
aI751
asg7
(lp2493
I189
aI487
asg9
(lp2494
I753
aI992
assV211
p2495
(dp2496
g3
(lp2497
I1
aI213
asg5
(lp2498
I485
aI736
asg7
(lp2499
I215
aI484
asg9
(lp2500
I737
aI992
assV218
p2501
(dp2502
g3
(lp2503
I1
aI138
asg5
(lp2504
I393
aI592
asg7
(lp2505
I139
aI391
asg9
(lp2506
I593
aI784
assV219
p2507
(dp2508
g3
(lp2509
I1
aI190
asg5
(lp2510
I441
aI717
asg7
(lp2511
I191
aI439
asg9
(lp2512
I719
aI941
assV289
p2513
(dp2514
g3
(lp2515
I1
aI224
asg5
(lp2516
I497
aI752
asg7
(lp2517
I1
aI496
asg9
(lp2518
I11
aI992
assV288
p2519
(dp2520
g3
(lp2521
I1
aI272
asg5
(lp2522
I545
aI816
asg7
(lp2523
I29
aI544
asg9
(lp2524
I45
aI1072
assg9
(dp2525
V24
p2526
(lp2527
I203
aI210
asV20
p2528
(lp2529
I171
aI186
asV21
p2530
(lp2531
I187
aI188
asV23
p2532
(lp2533
I195
aI201
asg3
(lp2534
I3
aI13
asg5
(lp2535
I21
aI27
asg7
(lp2536
I15
aI20
asg269
(lp2537
I61
aI69
asg9
(lp2538
I29
aI60
asg305
(lp2539
I79
aI84
asg272
(lp2540
I71
aI77
asg357
(lp2541
I91
aI94
asg308
(lp2542
I85
aI89
asV11
p2543
(lp2544
I101
aI104
asV10
p2545
(lp2546
I95
aI100
asV13
p2547
(lp2548
I121
aI128
asV12
p2549
(lp2550
I105
aI119
asV15
p2551
(lp2552
I133
aI140
asV14
p2553
(lp2554
I129
aI132
asV17
p2555
(lp2556
I151
aI161
asV16
p2557
(lp2558
I141
aI150
asV19
p2559
(lp2560
I167
aI170
asV18
p2561
(lp2562
I163
aI166
assV281
p2563
(dp2564
g3
(lp2565
I1
aI368
asg7
(lp2566
I14
aI736
asg9
(lp2567
I69
aI1392
assV280
p2568
(dp2569
g3
(lp2570
I1
aI318
asg5
(lp2571
I19
aI976
asg7
(lp2572
I337
aI615
asg9
(lp2573
I977
aI1292
assV283
p2574
(dp2575
g3
(lp2576
I1
aI357
asg5
(lp2577
I51
aI1104
asg7
(lp2578
I31
aI732
asg9
(lp2579
I99
aI1408
assV282
p2580
(dp2581
g3
(lp2582
I1
aI304
asg5
(lp2583
I33
aI1104
asg7
(lp2584
I305
aI704
asg9
(lp2585
I47
aI1488
assV285
p2586
(dp2587
g3
(lp2588
I1
aI224
asg5
(lp2589
I15
aI672
asg7
(lp2590
I11
aI448
asg9
(lp2591
I31
aI912
assV284
p2592
(dp2593
g3
(lp2594
I1
aI256
asg5
(lp2595
I11
aI784
asg7
(lp2596
I7
aI512
asg9
(lp2597
I15
aI1006
assV287
p2598
(dp2599
g3
(lp2600
I1
aI240
asg5
(lp2601
I9
aI704
asg7
(lp2602
I241
aI480
asg9
(lp2603
I705
aI960
assV286
p2604
(dp2605
g3
(lp2606
I1
aI256
asg5
(lp2607
I33
aI784
asg7
(lp2608
I21
aI512
asg9
(lp2609
I43
aI1040
assV263
p2610
(dp2611
g5
(lp2612
I545
aI816
asg7
(lp2613
I273
aI544
asg9
(lp2614
I817
aI1088
assV262
p2615
(dp2616
g3
(lp2617
I1
aI276
asg5
(lp2618
I545
aI816
asg7
(lp2619
I277
aI544
asg9
(lp2620
I817
aI1088
assV261
p2621
(dp2622
g3
(lp2623
I1
aI240
asg5
(lp2624
I465
aI704
asg7
(lp2625
I241
aI464
asg9
(lp2626
I705
aI928
assV260
p2627
(dp2628
g3
(lp2629
I1
aI240
asg5
(lp2630
I465
aI704
asg7
(lp2631
I241
aI464
asg9
(lp2632
I705
aI928
assV267
p2633
(dp2634
g3
(lp2635
I1
aI224
asg5
(lp2636
I465
aI799
asg7
(lp2637
I225
aI464
asg9
(lp2638
I801
aI1120
assV266
p2639
(dp2640
g3
(lp2641
I1
aI288
asg5
(lp2642
I545
aI768
asg7
(lp2643
I289
aI544
asg9
(lp2644
I769
aI990
assV265
p2645
(dp2646
g3
(lp2647
I1
aI256
asg5
(lp2648
I513
aI784
asg7
(lp2649
I257
aI512
asg9
(lp2650
I785
aI1056
assV264
p2651
(dp2652
g3
(lp2653
I1
aI272
asg5
(lp2654
I529
aI784
asg7
(lp2655
I273
aI528
asg9
(lp2656
I785
aI1040
assV269
p2657
(dp2658
g3
(lp2659
I1
aI224
asg5
(lp2660
I529
aI848
asg7
(lp2661
I226
aI528
asg9
(lp2662
I849
aI1152
assV268
p2663
(dp2664
g3
(lp2665
I1
aI304
asg5
(lp2666
I609
aI832
asg7
(lp2667
I305
aI608
asg9
(lp2668
I833
aI1072
assV59
p2669
(dp2670
V10
p2671
(lp2672
I554
aI593
asg3
(lp2673
I1
aI51
asg5
(lp2674
I123
aI177
asg7
(lp2675
I53
aI121
asg269
(lp2676
I201
aI325
asg9
(lp2677
I179
aI199
asg305
(lp2678
I371
aI435
asg272
(lp2679
I327
aI370
asg357
(lp2680
I523
aI551
asg308
(lp2681
I437
aI522
assV58
p2682
(dp2683
g3
(lp2684
I1
aI32
asg5
(lp2685
I77
aI111
asg7
(lp2686
I33
aI76
asg269
(lp2687
I255
aI342
asg9
(lp2688
I113
aI254
asg305
(lp2689
I369
aI412
asg272
(lp2690
I343
aI368
asg357
(lp2691
I473
aI536
asg308
(lp2692
I413
aI472
assV55
p2693
(dp2694
g3
(lp2695
I1
aI49
asg5
(lp2696
I85
aI172
asg7
(lp2697
I51
aI84
asg269
(lp2698
I279
aI321
asg9
(lp2699
I173
aI277
asg305
(lp2700
I345
aI405
asg272
(lp2701
I323
aI344
asg357
(lp2702
I495
aI544
asg308
(lp2703
I407
aI493
assV54
p2704
(dp2705
g3
(lp2706
I1
aI264
asg5
(lp2707
I129
aI175
asg7
(lp2708
I41
aI127
asg269
(lp2709
I285
aI342
asg9
(lp2710
I177
aI284
asg305
(lp2711
I403
aI450
asg272
(lp2712
I343
aI401
asg357
(lp2713
I571
aI602
asg308
(lp2714
I451
aI569
assV57
p2715
(dp2716
g3
(lp2717
I1
aI30
asg5
(lp2718
I93
aI191
asg7
(lp2719
I33
aI92
asg269
(lp2720
I331
aI432
asg9
(lp2721
I193
aI329
asg305
(lp2722
I503
aI563
asg272
(lp2723
I433
aI501
asg357
(lp2724
I621
aI654
asg308
(lp2725
I565
aI619
assV56
p2726
(dp2727
V10
p2728
(lp2729
I511
aI542
asg3
(lp2730
I1
aI47
asg5
(lp2731
I85
aI162
asg7
(lp2732
I49
aI84
asg269
(lp2733
I173
aI308
asg9
(lp2734
I163
aI172
asg305
(lp2735
I369
aI406
asg272
(lp2736
I309
aI367
asg357
(lp2737
I443
aI510
asg308
(lp2738
I407
aI441
assV51
p2739
(dp2740
g3
(lp2741
I1
aI182
asg5
(lp2742
I103
aI180
asg7
(lp2743
I75
aI101
asg269
(lp2744
I277
aI375
asg9
(lp2745
I181
aI276
asg305
(lp2746
I429
aI443
asg272
(lp2747
I377
aI428
asg357
(lp2748
I543
aI575
asg308
(lp2749
I445
aI541
assV50
p2750
(dp2751
g3
(lp2752
I1
aI60
asg5
(lp2753
I101
aI139
asg7
(lp2754
I61
aI100
asg269
(lp2755
I265
aI348
asg9
(lp2756
I141
aI264
asg305
(lp2757
I377
aI472
asg272
(lp2758
I349
aI376
asg357
(lp2759
I527
aI558
asg308
(lp2760
I473
aI526
assV53
p2761
(dp2762
g3
(lp2763
I1
aI52
asg5
(lp2764
I111
aI168
asg7
(lp2765
I53
aI109
asg269
(lp2766
I325
aI348
asg9
(lp2767
I169
aI324
asg305
(lp2768
I421
aI469
asg272
(lp2769
I349
aI420
asg357
(lp2770
I495
aI512
asg308
(lp2771
I471
aI493
assV52
p2772
(dp2773
g3
(lp2774
I1
aI66
asg5
(lp2775
I123
aI196
asg7
(lp2776
I67
aI121
asg269
(lp2777
I335
aI404
asg9
(lp2778
I198
aI334
asg305
(lp2779
I469
aI536
asg272
(lp2780
I405
aI467
asg357
(lp2781
I585
aI607
asg308
(lp2782
I537
aI583
assV63
p2783
(dp2784
g3
(lp2785
I1
aI54
asg5
(lp2786
I119
aI176
asg7
(lp2787
I55
aI117
asg269
(lp2788
I293
aI324
asg9
(lp2789
I177
aI291
asg305
(lp2790
I393
aI421
asg272
(lp2791
I325
aI391
asg357
(lp2792
I565
aI579
asg308
(lp2793
I423
aI564
assV115
p2794
(dp2795
g3
(lp2796
I1
aI106
asg5
(lp2797
I219
aI338
asg7
(lp2798
I107
aI218
asg269
(lp2799
I461
aI580
asg9
(lp2800
I339
aI459
asg272
(lp2801
I581
aI701
assV114
p2802
(dp2803
g3
(lp2804
I1
aI136
asg5
(lp2805
I273
aI384
asg7
(lp2806
I137
aI271
asg269
(lp2807
I501
aI616
asg9
(lp2808
I385
aI500
asg272
(lp2809
I617
aI703
assV117
p2810
(dp2811
g3
(lp2812
I1
aI117
asg5
(lp2813
I227
aI356
asg7
(lp2814
I119
aI226
asg269
(lp2815
I473
aI579
asg9
(lp2816
I357
aI471
asg272
(lp2817
I581
aI698
assV116
p2818
(dp2819
g3
(lp2820
I1
aI124
asg5
(lp2821
I241
aI359
asg7
(lp2822
I125
aI239
asg269
(lp2823
I475
aI590
asg9
(lp2824
I361
aI473
asg272
(lp2825
I591
aI700
assV111
p2826
(dp2827
g3
(lp2828
I1
aI124
asg5
(lp2829
I267
aI344
asg7
(lp2830
I125
aI265
asg269
(lp2831
I425
aI522
asg9
(lp2832
I345
aI424
asg272
(lp2833
I523
aI642
assV110
p2834
(dp2835
g3
(lp2836
I1
aI98
asg5
(lp2837
I197
aI261
asg7
(lp2838
I99
aI196
asg269
(lp2839
I415
aI504
asg9
(lp2840
I263
aI413
asg272
(lp2841
I505
aI627
assV113
p2842
(dp2843
g3
(lp2844
I1
aI107
asg5
(lp2845
I269
aI408
asg7
(lp2846
I109
aI267
asg269
(lp2847
I527
aI653
asg9
(lp2848
I409
aI526
asg272
(lp2849
I655
aI790
assV112
p2850
(dp2851
g3
(lp2852
I1
aI124
asg5
(lp2853
I245
aI358
asg7
(lp2854
I125
aI243
asg269
(lp2855
I473
aI573
asg9
(lp2856
I359
aI471
asg272
(lp2857
I575
aI680
assV119
p2858
(dp2859
g3
(lp2860
I1
aI74
asg5
(lp2861
I197
aI324
asg7
(lp2862
I75
aI196
asg269
(lp2863
I457
aI584
asg9
(lp2864
I325
aI455
asg272
(lp2865
I585
aI684
assV118
p2866
(dp2867
g3
(lp2868
I1
aI96
asg5
(lp2869
I201
aI286
asg7
(lp2870
I97
aI199
asg269
(lp2871
I407
aI530
asg9
(lp2872
I287
aI406
asg272
(lp2873
I531
aI642
assV429
p2874
(dp2875
g3
(lp2876
I2
aI924
asg5
(lp2877
I1849
aI2772
asg7
(lp2878
I925
aI1848
asg9
(lp2879
I2773
aI3664
assV428
p2880
(dp2881
g3
(lp2882
I2
aI924
asg5
(lp2883
I1857
aI2788
asg7
(lp2884
I925
aI1855
asg9
(lp2885
I2789
aI3716
assV421
p2886
(dp2887
g3
(lp2888
I1
aI912
asg5
(lp2889
I1825
aI2736
asg7
(lp2890
I913
aI1824
asg9
(lp2891
I2737
aI3648
assV420
p2892
(dp2893
g3
(lp2894
I1
aI912
asg5
(lp2895
I1825
aI2735
asg7
(lp2896
I913
aI1824
asg9
(lp2897
I2737
aI3648
assV423
p2898
(dp2899
g3
(lp2900
I1
aI992
asg5
(lp2901
I1985
aI2976
asg7
(lp2902
I993
aI1984
asg9
(lp2903
I2977
aI3776
assV422
p2904
(dp2905
g3
(lp2906
I1
aI912
asg5
(lp2907
I1825
aI2736
asg7
(lp2908
I913
aI1824
asg9
(lp2909
I2737
aI3648
assV425
p2910
(dp2911
g3
(lp2912
I1
aI800
asg5
(lp2913
I1601
aI2400
asg7
(lp2914
I801
aI1600
asg9
(lp2915
I2401
aI3200
assV424
p2916
(dp2917
g3
(lp2918
I1
aI800
asg5
(lp2919
I1601
aI2400
asg7
(lp2920
I801
aI1600
asg9
(lp2921
I2401
aI3200
assV427
p2922
(dp2923
g3
(lp2924
I1
aI900
asg5
(lp2925
I1801
aI2700
asg7
(lp2926
I901
aI1800
asg9
(lp2927
I2701
aI3489
assV426
p2928
(dp2929
g3
(lp2930
I1
aI800
asg5
(lp2931
I1701
aI2600
asg7
(lp2932
I801
aI1700
asg9
(lp2933
I2601
aI3500
assV308
p2934
(dp2935
g3
(lp2936
I1
aI288
asg5
(lp2937
I17
aI896
asg7
(lp2938
I289
aI592
asg9
(lp2939
I29
aI1184
assV309
p2940
(dp2941
g3
(lp2942
I1
aI272
asg5
(lp2943
I561
aI816
asg7
(lp2944
I13
aI560
asg9
(lp2945
I25
aI1088
assV300
p2946
(dp2947
g3
(lp2948
I1
aI320
asg5
(lp2949
I625
aI944
asg9
(lp2950
I29
aI1232
assV301
p2951
(dp2952
g3
(lp2953
I1
aI288
asg5
(lp2954
I593
aI880
asg7
(lp2955
I25
aI592
asg9
(lp2956
I881
aI1104
assV302
p2957
(dp2958
g3
(lp2959
I1
aI208
asg5
(lp2960
I45
aI624
asg7
(lp2961
I29
aI416
asg9
(lp2962
I55
aI832
assV303
p2963
(dp2964
g3
(lp2965
I1
aI208
asg5
(lp2966
I37
aI640
asg7
(lp2967
I17
aI432
asg9
(lp2968
I53
aI864
assV304
p2969
(dp2970
g3
(lp2971
I1
aI224
asg5
(lp2972
I465
aI704
asg7
(lp2973
I25
aI464
asg9
(lp2974
I37
aI960
assV305
p2975
(dp2976
g3
(lp2977
I1
aI240
asg5
(lp2978
I41
aI736
asg7
(lp2979
I241
aI480
asg9
(lp2980
I737
aI976
assV306
p2981
(dp2982
g3
(lp2983
I1
aI256
asg5
(lp2984
I25
aI752
asg7
(lp2985
I257
aI512
asg9
(lp2986
I45
aI992
assV307
p2987
(dp2988
g3
(lp2989
I1
aI224
asg5
(lp2990
I17
aI736
asg7
(lp2991
I225
aI480
asg9
(lp2992
I31
aI1024
assV229
p2993
(dp2994
g3
(lp2995
I1
aI117
asg5
(lp2996
I315
aI503
asg7
(lp2997
I119
aI314
asg9
(lp2998
I505
aI708
assV228
p2999
(dp3000
g3
(lp3001
I1
aI216
asg5
(lp3002
I501
aI778
asg7
(lp3003
I217
aI499
asg9
(lp3004
I779
aI1023
assV227
p3005
(dp3006
g3
(lp3007
I1
aI256
asg5
(lp3008
I543
aI771
asg7
(lp3009
I257
aI542
asg9
(lp3010
I773
aI1087
assV226
p3011
(dp3012
g3
(lp3013
I1
aI256
asg5
(lp3014
I485
aI745
asg7
(lp3015
I257
aI483
asg9
(lp3016
I747
aI991
assV225
p3017
(dp3018
g3
(lp3019
I1
aI198
asg5
(lp3020
I469
aI739
asg7
(lp3021
I199
aI468
asg9
(lp3022
I741
aI1023
assV224
p3023
(dp3024
g3
(lp3025
I1
aI269
asg5
(lp3026
I513
aI820
asg7
(lp3027
I271
aI512
asg9
(lp3028
I821
aI1088
assV223
p3029
(dp3030
g3
(lp3031
I1
aI188
asg5
(lp3032
I443
aI648
asg7
(lp3033
I189
aI442
asg9
(lp3034
I649
aI895
assV222
p3035
(dp3036
g3
(lp3037
I1
aI187
asg5
(lp3038
I383
aI609
asg7
(lp3039
I189
aI381
asg9
(lp3040
I611
aI895
assV221
p3041
(dp3042
g3
(lp3043
I1
aI168
asg5
(lp3044
I513
aI768
asg7
(lp3045
I169
aI511
asg9
(lp3046
I769
aI1056
assV220
p3047
(dp3048
g3
(lp3049
I1
aI251
asg5
(lp3050
I493
aI743
asg7
(lp3051
I253
aI491
asg9
(lp3052
I745
aI1056
assV391
p3053
(dp3054
g3
(lp3055
I1
aI480
asg5
(lp3056
I1009
aI1488
asg7
(lp3057
I481
aI1008
asg9
(lp3058
I1489
aI2016
assV390
p3059
(dp3060
g3
(lp3061
I1
aI464
asg5
(lp3062
I881
aI1296
asg7
(lp3063
I465
aI880
asg9
(lp3064
I1297
aI1776
assV151
p3065
(dp3066
g3
(lp3067
I1
aI147
asg5
(lp3068
I261
aI384
asg7
(lp3069
I149
aI258
asg9
(lp3070
I385
aI483
assV150
p3071
(dp3072
g3
(lp3073
I1
aI139
asg5
(lp3074
I237
aI357
asg7
(lp3075
I141
aI236
asg9
(lp3076
I359
aI481
assV153
p3077
(dp3078
g3
(lp3079
I1
aI523
asg5
(lp3080
I261
aI392
asg7
(lp3081
I133
aI260
asg9
(lp3082
I393
aI525
assV152
p3083
(dp3084
g3
(lp3085
I1
aI144
asg5
(lp3086
I261
aI376
asg7
(lp3087
I145
aI259
asg9
(lp3088
I377
aI513
assV155
p3089
(dp3090
g3
(lp3091
I1
aI152
asg5
(lp3092
I293
aI402
asg7
(lp3093
I153
aI291
asg9
(lp3094
I403
aI503
assV154
p3095
(dp3096
g3
(lp3097
I1
aI123
asg5
(lp3098
I255
aI383
asg7
(lp3099
I125
aI253
asg9
(lp3100
I385
aI505
assV157
p3101
(dp3102
g3
(lp3103
I1
aI120
asg5
(lp3104
I229
aI348
asg7
(lp3105
I121
aI227
asg9
(lp3106
I349
aI477
assV156
p3107
(dp3108
g3
(lp3109
I1
aI128
asg5
(lp3110
I265
aI376
asg7
(lp3111
I129
aI263
asg9
(lp3112
I377
aI471
assV159
p3113
(dp3114
g3
(lp3115
I1
aI111
asg5
(lp3116
I233
aI348
asg7
(lp3117
I113
aI231
asg9
(lp3118
I349
aI453
assV158
p3119
(dp3120
g3
(lp3121
I1
aI123
asg5
(lp3122
I245
aI360
asg7
(lp3123
I125
aI243
asg9
(lp3124
I361
aI483
assV399
p3125
(dp3126
g3
(lp3127
I1
aI496
asg5
(lp3128
I1089
aI1680
asg7
(lp3129
I497
aI1088
asg9
(lp3130
I1681
aI2288
assV398
p3131
(dp3132
g3
(lp3133
I1
aI496
asg5
(lp3134
I1041
aI1600
asg7
(lp3135
I497
aI1040
asg9
(lp3136
I1601
aI2208
assV48
p3137
(dp3138
g3
(lp3139
I1
aI76
asg5
(lp3140
I85
aI143
asg7
(lp3141
I77
aI83
asg269
(lp3142
I253
aI295
asg9
(lp3143
I145
aI252
asg305
(lp3144
I317
aI350
asg272
(lp3145
I297
aI316
asg357
(lp3146
I383
aI411
asg308
(lp3147
I351
aI382
assV49
p3148
(dp3149
g3
(lp3150
I1
aI51
asg5
(lp3151
I97
aI144
asg7
(lp3152
I53
aI95
asg269
(lp3153
I259
aI341
asg9
(lp3154
I145
aI258
asg305
(lp3155
I379
aI402
asg272
(lp3156
I343
aI377
asg357
(lp3157
I431
aI458
asg308
(lp3158
I403
aI429
assV46
p3159
(dp3160
g3
(lp3161
I1
aI34
asg5
(lp3162
I91
aI167
asg7
(lp3163
I35
aI90
asg269
(lp3164
I281
aI323
asg9
(lp3165
I169
aI279
asg305
(lp3166
I365
aI401
asg272
(lp3167
I325
aI364
asg357
(lp3168
I487
aI508
asg308
(lp3169
I403
aI486
assV47
p3170
(dp3171
g3
(lp3172
I1
aI76
asg5
(lp3173
I79
aI120
asg7
(lp3174
I49
aI78
asg269
(lp3175
I223
aI308
asg9
(lp3176
I121
aI221
asg305
(lp3177
I395
aI442
asg272
(lp3178
I309
aI394
asg357
(lp3179
I521
aI574
asg308
(lp3180
I443
aI520
assV44
p3181
(dp3182
g3
(lp3183
I1
aI678
asg5
(lp3184
I77
aI118
asg7
(lp3185
I33
aI76
asg269
(lp3186
I225
aI273
asg9
(lp3187
I119
aI224
asg305
(lp3188
I347
aI379
asg272
(lp3189
I275
aI346
asg357
(lp3190
I441
aI464
asg308
(lp3191
I381
aI440
assV45
p3192
(dp3193
g3
(lp3194
I1
aI60
asg5
(lp3195
I121
aI174
asg7
(lp3196
I61
aI120
asg269
(lp3197
I295
aI373
asg9
(lp3198
I175
aI294
asg305
(lp3199
I387
aI409
asg272
(lp3200
I375
aI386
asg357
(lp3201
I465
aI517
asg308
(lp3202
I411
aI464
assV42
p3203
(dp3204
g3
(lp3205
I1
aI50
asg5
(lp3206
I91
aI130
asg7
(lp3207
I51
aI90
asg269
(lp3208
I223
aI274
asg9
(lp3209
I131
aI222
asg305
(lp3210
I325
aI364
asg272
(lp3211
I275
aI324
asg357
(lp3212
I427
aI449
asg308
(lp3213
I365
aI426
assV43
p3214
(dp3215
g3
(lp3216
I1
aI654
asg5
(lp3217
I71
aI146
asg7
(lp3218
I43
aI70
asg269
(lp3219
I255
aI306
asg9
(lp3220
I147
aI254
asg305
(lp3221
I335
aI394
asg272
(lp3222
I307
aI334
asg357
(lp3223
I481
aI494
asg308
(lp3224
I397
aI480
assV40
p3225
(dp3226
g3
(lp3227
I1
aI32
asg5
(lp3228
I105
aI176
asg7
(lp3229
I33
aI104
asg269
(lp3230
I269
aI332
asg9
(lp3231
I177
aI268
asg305
(lp3232
I381
aI440
asg272
(lp3233
I333
aI380
asg357
(lp3234
I565
aI628
asg308
(lp3235
I441
aI564
assV41
p3236
(dp3237
g3
(lp3238
I1
aI608
asg5
(lp3239
I89
aI168
asg7
(lp3240
I57
aI88
asg269
(lp3241
I253
aI316
asg9
(lp3242
I169
aI252
asg305
(lp3243
I333
aI376
asg272
(lp3244
I317
aI332
asg357
(lp3245
I417
aI447
asg308
(lp3246
I377
aI416
assg269
(dp3247
V24
p3248
(lp3249
I197
aI206
asV25
p3250
(lp3251
I207
aI222
asV26
p3252
(lp3253
I223
aI226
asV27
p3254
(lp3255
I227
aI235
asV20
p3256
(lp3257
I141
aI166
asV21
p3258
(lp3259
I167
aI178
asV22
p3260
(lp3261
I179
aI183
asV23
p3262
(lp3263
I185
aI196
asV28
p3264
(lp3265
I237
aI260
asV29
p3266
(lp3267
I261
aI264
asg3
(lp3268
I1
aI4
asg5
(lp3269
I9
aI16
asg7
(lp3270
I5
aI8
asg269
(lp3271
I41
aI44
asg9
(lp3272
I17
aI39
asg272
(lp3273
I45
aI56
asg357
(lp3274
I61
aI68
asg308
(lp3275
I57
aI60
asV11
p3276
(lp3277
I69
aI76
asV10
p3278
(lp3279
I65
aI65
asV13
p3280
(lp3281
I101
aI105
asV12
p3282
(lp3283
I77
aI99
asV15
p3284
(lp3285
I111
aI114
asV14
p3286
(lp3287
I107
aI110
asV17
p3288
(lp3289
I119
aI124
asV16
p3290
(lp3291
I115
aI118
asV19
p3292
(lp3293
I129
aI140
asV18
p3294
(lp3295
I125
aI126
asV31
p3296
(lp3297
I277
aI290
asV30
p3298
(lp3299
I265
aI275
asV32
p3300
(lp3301
I291
aI308
ass.